(dp1
ccopy_reg
_reconstructor
p2
(ctaskSetup
State
p3
c__builtin__
tuple
p4
(I0
I2
I0
I1
I1
I1
I0
ttRp5
(dp6
S'K'
F0.5
sS'G'
F0.5
ssg2
(g3
g4
(I0
I3
I1
I1
I1
I1
I0
ttRp7
(dp8
S'WG'
p9
F0.5
sS'K'
F0.5
ssg2
(g3
g4
(I3
I0
I0
I0
I1
I0
I0
ttRp10
(dp11
S'K'
F1
ssg2
(g3
g4
(I2
I1
I0
I0
I1
I0
I0
ttRp12
(dp13
S'K'
F1
ssg2
(g3
g4
(I0
I4
I0
I1
I1
I0
I0
ttRp14
(dp15
S'K'
F0.33333333333333331
sS'R'
F0.33333333333333331
sS'TH'
p16
F0.33333333333333331
ssg2
(g3
g4
(I3
I0
I0
I0
I1
I1
I0
ttRp17
(dp18
S'K'
F0.5
sS'G'
F0.5
ssg2
(g3
g4
(I0
I0
I1
I0
I1
I1
I0
ttRp19
(dp20
S'WG'
p21
F1
ssg2
(g3
g4
(I3
I0
I1
I0
I1
I1
I0
ttRp22
(dp23
g9
F0.5
sS'K'
F0.5
ssg2
(g3
g4
(I0
I0
I0
I0
I1
I1
I0
ttRp24
(dp25
S'K'
F0.5
sS'G'
F0.5
ssg2
(g3
g4
(I0
I1
I0
I0
I1
I1
I0
ttRp26
(dp27
S'K'
F0.5
sS'G'
F0.5
ssg2
(g3
g4
(I4
I0
I0
I1
I0
I0
I0
ttRp28
(dp29
S'R'
F0.5
sS'TR'
p30
F0.5
ssg2
(g3
g4
(I1
I1
I0
I0
I1
I0
I0
ttRp31
(dp32
S'K'
F1
ssg2
(g3
g4
(I0
I1
I1
I0
I1
I1
I0
ttRp33
(dp34
S'WG'
p35
F1
ssg2
(g3
g4
(I1
I2
I1
I0
I0
I1
I0
ttRp36
(dp37
S'WG'
p38
F1
ssg2
(g3
g4
(I3
I1
I0
I1
I1
I0
I0
ttRp39
(dp40
S'K'
F0.33333333333333331
sS'R'
F0.33333333333333331
sg16
F0.33333333333333331
ssg2
(g3
g4
(I0
I3
I0
I0
I1
I0
I0
ttRp41
(dp42
S'K'
F1
ssg2
(g3
g4
(I2
I0
I0
I0
I1
I0
I0
ttRp43
(dp44
S'K'
F1
ssg2
(g3
g4
(I1
I1
I0
I0
I0
I0
I0
ttRp45
(dp46
S'K'
F0.0625
sS'TR'
p47
F0.3125
sS'TH'
p48
F0.625
ssg2
(g3
g4
(I1
I2
I0
I1
I1
I0
I0
ttRp49
(dp50
S'K'
F0.33333333333333331
sS'R'
F0.33333333333333331
sg16
F0.33333333333333331
ssg2
(g3
g4
(I1
I2
I1
I1
I0
I1
I0
ttRp51
(dp52
g9
F0.33333333333333331
sS'R'
F0.33333333333333331
sg30
F0.33333333333333331
ssg2
(g3
g4
(I1
I1
I1
I1
I1
I1
I0
ttRp53
(dp54
g9
F0.5
sS'K'
F0.5
ssg2
(g3
g4
(I1
I0
I0
I1
I1
I1
I0
ttRp55
(dp56
S'K'
F0.5
sS'G'
F0.5
ssg2
(g3
g4
(I2
I0
I0
I0
I0
I0
I0
ttRp57
(dp58
S'TR'
p59
F1
ssg2
(g3
g4
(I1
I2
I0
I1
I0
I0
I0
ttRp60
(dp61
S'R'
F1
ssg2
(g3
g4
(I0
I2
I0
I0
I1
I0
I0
ttRp62
(dp63
S'K'
F1
ssg2
(g3
g4
(I3
I0
I1
I0
I0
I1
I0
ttRp64
(dp65
S'WG'
p66
F1
ssg2
(g3
g4
(I0
I0
I0
I0
I0
I1
I0
ttRp67
(dp68
S'G'
F1
ssg2
(g3
g4
(I2
I0
I1
I1
I1
I1
I0
ttRp69
(dp70
g9
F0.5
sS'K'
F0.5
ssg2
(g3
g4
(I0
I1
I1
I0
I0
I1
I0
ttRp71
(dp72
S'WG'
p73
F1
ssg2
(g3
g4
(I3
I0
I0
I1
I0
I1
I0
ttRp74
(dp75
S'R'
F0.33333333333333331
sg30
F0.33333333333333331
sS'G'
F0.33333333333333331
ssg2
(g3
g4
(I2
I1
I0
I1
I1
I1
I0
ttRp76
(dp77
S'K'
F0.5
sS'G'
F0.5
ssg2
(g3
g4
(I3
I0
I0
I1
I1
I0
I0
ttRp78
(dp79
S'K'
F0.5
sS'R'
F0.5
ssg2
(g3
g4
(I0
I2
I0
I0
I0
I0
I0
ttRp80
(dp81
S'TH'
p82
F1
ssg2
(g3
g4
(I0
I1
I0
I1
I1
I0
I0
ttRp83
(dp84
S'K'
F0.33333333333333331
sS'R'
F0.33333333333333331
sg16
F0.33333333333333331
ssg2
(g3
g4
(I3
I0
I1
I1
I0
I1
I0
ttRp85
(dp86
g9
F0.33333333333333331
sS'R'
F0.33333333333333331
sg30
F0.33333333333333331
ssg2
(g3
g4
(I0
I0
I0
I1
I0
I1
I0
ttRp87
(dp88
S'R'
F0.5
sS'G'
F0.5
ssg2
(g3
g4
(I1
I1
I0
I1
I0
I0
I0
ttRp89
(dp90
S'R'
F1
ssg2
(g3
g4
(I0
I1
I1
I1
I0
I1
I0
ttRp91
(dp92
S'WG'
p93
F0.5
sS'R'
F0.5
ssg2
(g3
g4
(I0
I3
I0
I0
I0
I0
I0
ttRp94
(dp95
S'TH'
p96
F1
ssg2
(g3
g4
(I0
I2
I1
I1
I1
I1
I0
ttRp97
(dp98
g9
F0.5
sS'K'
F0.5
ssg2
(g3
g4
(I1
I2
I1
I1
I1
I1
I0
ttRp99
(dp100
g9
F0.5
sS'K'
F0.5
ssg2
(g3
g4
(I0
I3
I0
I1
I1
I1
I0
ttRp101
(dp102
S'K'
F0.5
sS'G'
F0.5
ssg2
(g3
g4
(I1
I1
I1
I1
I0
I1
I0
ttRp103
(dp104
S'WG'
p105
F0.5
sS'R'
F0.5
ssg2
(g3
g4
(I0
I1
I0
I1
I0
I0
I0
ttRp106
(dp107
S'R'
F1
ssg2
(g3
g4
(I1
I0
I0
I1
I0
I1
I0
ttRp108
(dp109
S'R'
F1
ssg2
(g3
g4
(I1
I1
I0
I1
I1
I0
I0
ttRp110
(dp111
S'K'
F0.33333333333333331
sS'R'
F0.33333333333333331
sg16
F0.33333333333333331
ssg2
(g3
g4
(I1
I2
I0
I0
I0
I0
I0
ttRp112
(dp113
S'TR'
p114
F0.2857142857142857
sS'TH'
p115
F0.7142857142857143
ssg2
(g3
g4
(I1
I1
I1
I0
I0
I1
I0
ttRp116
(dp117
S'WG'
p118
F1
ssg2
(g3
g4
(I2
I0
I1
I1
I0
I1
I0
ttRp119
(dp120
S'WG'
p121
F0.5
sS'R'
F0.5
ssg2
(g3
g4
(I1
I0
I0
I0
I0
I1
I0
ttRp122
(dp123
S'G'
F1
ssg2
(g3
g4
(I2
I1
I0
I1
I0
I1
I0
ttRp124
(dp125
S'R'
F1
ssg2
(g3
g4
(I2
I0
I0
I1
I1
I0
I0
ttRp126
(dp127
S'K'
F0.5
sS'R'
F0.5
ssg2
(g3
g4
(I1
I2
I0
I0
I1
I0
I0
ttRp128
(dp129
S'K'
F1
ssg2
(g3
g4
(I0
I2
I0
I1
I0
I0
I0
ttRp130
(dp131
S'R'
F1
ssg2
(g3
g4
(I3
I0
I1
I1
I1
I1
I0
ttRp132
(dp133
g9
F0.5
sS'K'
F0.5
ssg2
(g3
g4
(I2
I2
I0
I1
I0
I0
I0
ttRp134
(dp135
S'R'
F0.33333333333333331
sg30
F0.33333333333333331
sg16
F0.33333333333333331
ssg2
(g3
g4
(I0
I0
I0
I1
I1
I1
I0
ttRp136
(dp137
S'K'
F0.5
sS'G'
F0.5
ssg2
(g3
g4
(I2
I0
I1
I0
I0
I1
I0
ttRp138
(dp139
S'WG'
p140
F1
ssg2
(g3
g4
(I0
I1
I1
I1
I1
I1
I0
ttRp141
(dp142
g9
F0.5
sS'K'
F0.5
ssg2
(g3
g4
(I4
I0
I0
I1
I1
I0
I0
ttRp143
(dp144
S'K'
F0.5
sS'R'
F0.5
ssg2
(g3
g4
(I2
I1
I0
I0
I0
I1
I0
ttRp145
(dp146
S'G'
F1
ssg2
(g3
g4
(I0
I2
I1
I1
I0
I1
I0
ttRp147
(dp148
S'WG'
p149
F0.5
sS'R'
F0.5
ssg2
(g3
g4
(I3
I0
I0
I0
I0
I0
I0
ttRp150
(dp151
S'TR'
p152
F1
ssg2
(g3
g4
(I0
I3
I0
I1
I0
I1
I0
ttRp153
(dp154
S'R'
F0.5
sS'G'
F0.5
ssg2
(g3
g4
(I0
I2
I0
I1
I1
I0
I0
ttRp155
(dp156
S'K'
F1
ssg2
(g3
g4
(I0
I1
I0
I0
I0
I0
I0
ttRp157
(dp158
S'TH'
p159
F1
ssg2
(g3
g4
(I1
I3
I0
I0
I1
I0
I0
ttRp160
(dp161
S'K'
F0.5
sg16
F0.5
ssg2
(g3
g4
(I0
I2
I1
I0
I0
I1
I0
ttRp162
(dp163
S'WG'
p164
F1
ssg2
(g3
g4
(I0
I3
I0
I0
I0
I1
I0
ttRp165
(dp166
S'G'
F1
ssg2
(g3
g4
(I1
I1
I1
I0
I1
I1
I0
ttRp167
(dp168
S'WG'
p169
F1
ssg2
(g3
g4
(I0
I1
I0
I0
I1
I0
I0
ttRp170
(dp171
S'K'
F1
ssg2
(g3
g4
(I1
I1
I0
I0
I1
I1
I0
ttRp172
(dp173
S'G'
F1
ssg2
(g3
g4
(I1
I0
I0
I0
I1
I1
I0
ttRp174
(dp175
S'G'
F1
ssg2
(g3
g4
(I2
I2
I0
I0
I1
I0
I0
ttRp176
(dp177
S'K'
F0.5
sg16
F0.5
ssg2
(g3
g4
(I1
I0
I1
I0
I1
I1
I0
ttRp178
(dp179
S'WG'
p180
F1
ssg2
(g3
g4
(I1
I3
I0
I0
I0
I0
I0
ttRp181
(dp182
S'TR'
p183
F0.5
sS'TH'
p184
F0.5
ssg2
(g3
g4
(I3
I0
I0
I1
I0
I0
I0
ttRp185
(dp186
S'R'
F0.5
sg30
F0.5
ssg2
(g3
g4
(I2
I0
I1
I0
I1
I1
I0
ttRp187
(dp188
S'WG'
p189
F1
ssg2
(g3
g4
(I2
I0
I0
I0
I1
I1
I0
ttRp190
(dp191
S'K'
F0.5
sS'G'
F0.5
ssg2
(g3
g4
(I2
I1
I0
I0
I1
I1
I0
ttRp192
(dp193
S'G'
F1
ssg2
(g3
g4
(I1
I2
I0
I1
I1
I1
I0
ttRp194
(dp195
S'K'
F0.5
sS'G'
F0.5
ssg2
(g3
g4
(I3
I1
I0
I0
I1
I0
I0
ttRp196
(dp197
S'K'
F0.5
sg16
F0.5
ssg2
(g3
g4
(I2
I1
I1
I0
I1
I1
I0
ttRp198
(dp199
S'WG'
p200
F1
ssg2
(g3
g4
(I2
I2
I0
I0
I0
I0
I0
ttRp201
(dp202
S'TR'
p203
F0.66666666666666663
sS'TH'
p204
F0.33333333333333331
ssg2
(g3
g4
(I0
I0
I0
I0
I1
I0
I0
ttRp205
(dp206
S'K'
F1
ssg2
(g3
g4
(I0
I2
I1
I0
I1
I1
I0
ttRp207
(dp208
S'WG'
p209
F1
ssg2
(g3
g4
(I0
I2
I0
I0
I1
I1
I0
ttRp210
(dp211
S'K'
F0.5
sS'G'
F0.5
ssg2
(g3
g4
(I0
I3
I0
I0
I1
I1
I0
ttRp212
(dp213
S'K'
F0.5
sS'G'
F0.5
ssg2
(g3
g4
(I0
I3
I1
I0
I1
I1
I0
ttRp214
(dp215
S'WG'
p216
F1
ssg2
(g3
g4
(I0
I0
I0
I0
I0
I0
I0
ttRp217
(dp218
S'WS'
p219
F1
ssg2
(g3
g4
(I1
I1
I0
I0
I0
I1
I0
ttRp220
(dp221
S'G'
F1
ssg2
(g3
g4
(I2
I0
I0
I1
I0
I1
I0
ttRp222
(dp223
S'R'
F0.33333333333333331
sg30
F0.33333333333333331
sS'G'
F0.33333333333333331
ssg2
(g3
g4
(I1
I3
I0
I1
I0
I0
I0
ttRp224
(dp225
S'R'
F0.33333333333333331
sg30
F0.33333333333333331
sg16
F0.33333333333333331
ssg2
(g3
g4
(I1
I0
I1
I0
I0
I1
I0
ttRp226
(dp227
S'WG'
p228
F1
ssg2
(g3
g4
(I3
I0
I0
I1
I1
I1
I0
ttRp229
(dp230
S'K'
F0.5
sS'G'
F0.5
ssg2
(g3
g4
(I0
I0
I1
I1
I1
I1
I0
ttRp231
(dp232
g9
F0.5
sS'K'
F0.5
ssg2
(g3
g4
(I4
I0
I0
I0
I0
I0
I0
ttRp233
(dp234
S'TR'
p235
F1
ssg2
(g3
g4
(I0
I1
I0
I1
I1
I1
I0
ttRp236
(dp237
S'K'
F0.5
sS'G'
F0.5
ssg2
(g3
g4
(I1
I0
I0
I1
I1
I0
I0
ttRp238
(dp239
S'K'
F0.5
sS'R'
F0.5
ssg2
(g3
g4
(I1
I1
I0
I1
I0
I1
I0
ttRp240
(dp241
S'R'
F0.66666666666666663
sS'G'
F0.33333333333333331
ssg2
(g3
g4
(I2
I0
I0
I0
I0
I1
I0
ttRp242
(dp243
S'G'
F1
ssg2
(g3
g4
(I1
I2
I0
I1
I0
I1
I0
ttRp244
(dp245
S'R'
F0.33333333333333331
sg30
F0.33333333333333331
sS'G'
F0.33333333333333331
ssg2
(g3
g4
(I1
I0
I1
I1
I0
I1
I0
ttRp246
(dp247
S'WG'
p248
F0.33333333333333331
sS'R'
F0.66666666666666663
ssg2
(g3
g4
(I2
I1
I1
I0
I0
I1
I0
ttRp249
(dp250
S'WG'
p251
F1
ssg2
(g3
g4
(I1
I3
I0
I1
I1
I0
I0
ttRp252
(dp253
S'K'
F0.33333333333333331
sS'R'
F0.33333333333333331
sg16
F0.33333333333333331
ssg2
(g3
g4
(I2
I1
I0
I1
I1
I0
I0
ttRp254
(dp255
S'K'
F0.33333333333333331
sS'R'
F0.33333333333333331
sg16
F0.33333333333333331
ssg2
(g3
g4
(I1
I0
I0
I1
I0
I0
I0
ttRp256
(dp257
S'R'
F1
ssg2
(g3
g4
(I0
I4
I0
I0
I1
I0
I0
ttRp258
(dp259
S'K'
F0.5
sg16
F0.5
ssg2
(g3
g4
(I1
I2
I0
I0
I0
I1
I0
ttRp260
(dp261
S'G'
F1
ssg2
(g3
g4
(I3
I1
I0
I1
I0
I0
I0
ttRp262
(dp263
S'R'
F0.33333333333333331
sg30
F0.33333333333333331
sg16
F0.33333333333333331
ssg2
(g3
g4
(I2
I1
I1
I1
I0
I1
I0
ttRp264
(dp265
S'WG'
p266
F0.5
sS'R'
F0.5
ssg2
(g3
g4
(I2
I2
I0
I1
I1
I0
I0
ttRp267
(dp268
S'K'
F0.33333333333333331
sS'R'
F0.33333333333333331
sg16
F0.33333333333333331
ssg2
(g3
g4
(I0
I2
I0
I0
I0
I1
I0
ttRp269
(dp270
S'G'
F1
ssg2
(g3
g4
(I0
I0
I0
I1
I0
I0
I0
ttRp271
(dp272
S'R'
F1
ssg2
(g3
g4
(I0
I3
I1
I0
I0
I1
I0
ttRp273
(dp274
g9
F1
ssg2
(g3
g4
(I2
I1
I0
I1
I0
I0
I0
ttRp275
(dp276
S'R'
F1
ssg2
(g3
g4
(I0
I4
I0
I0
I0
I0
I0
ttRp277
(dp278
S'TH'
p279
F1
ssg2
(g3
g4
(I0
I3
I0
I1
I1
I0
I0
ttRp280
(dp281
S'K'
F0.33333333333333331
sS'R'
F0.33333333333333331
sg16
F0.33333333333333331
ssg2
(g3
g4
(I4
I0
I0
I0
I1
I0
I0
ttRp282
(dp283
S'K'
F1
ssg2
(g3
g4
(I0
I0
I1
I1
I0
I1
I0
ttRp284
(dp285
S'WG'
p286
F0.5
sS'R'
F0.5
ssg2
(g3
g4
(I0
I2
I0
I1
I0
I1
I0
ttRp287
(dp288
S'R'
F0.5
sS'G'
F0.5
ssg2
(g3
g4
(I0
I1
I0
I1
I0
I1
I0
ttRp289
(dp290
S'R'
F0.5
sS'G'
F0.5
ssg2
(g3
g4
(I0
I3
I1
I1
I0
I1
I0
ttRp291
(dp292
S'WG'
p293
F0.5
sS'R'
F0.5
ssg2
(g3
g4
(I0
I0
I0
I1
I1
I0
I0
ttRp294
(dp295
S'K'
F0.5
sS'R'
F0.5
ssg2
(g3
g4
(I1
I1
I0
I1
I1
I1
I0
ttRp296
(dp297
S'K'
F0.5
sS'G'
F0.5
ssg2
(g3
g4
(I3
I1
I0
I0
I0
I0
I0
ttRp298
(dp299
S'TH'
p300
F1
ssg2
(g3
g4
(I1
I0
I1
I1
I1
I1
I0
ttRp301
(dp302
g9
F0.5
sS'K'
F0.5
ssg2
(g3
g4
(I3
I0
I0
I0
I0
I1
I0
ttRp303
(dp304
S'G'
F1
ssg2
(g3
g4
(I0
I0
I1
I0
I0
I1
I0
ttRp305
(dp306
S'WG'
p307
F1
ssg2
(g3
g4
(I0
I3
I0
I1
I0
I0
I0
ttRp308
(dp309
S'R'
F1
ssg2
(g3
g4
(I0
I0
I0
I0
I0
I0
I1
ttRp310
(dp311
S'X'
F1
ssg2
(g3
g4
(I0
I1
I0
I0
I0
I1
I0
ttRp312
(dp313
S'G'
F1
ssg2
(g3
g4
(I1
I0
I0
I0
I0
I0
I0
ttRp314
(dp315
S'TR'
p316
F1
ssg2
(g3
g4
(I2
I0
I0
I1
I1
I1
I0
ttRp317
(dp318
S'K'
F0.5
sS'G'
F0.5
ssg2
(g3
g4
(I1
I2
I0
I0
I1
I1
I0
ttRp319
(dp320
S'K'
F0.5
sS'G'
F0.5
ssg2
(g3
g4
(I2
I1
I1
I1
I1
I1
I0
ttRp321
(dp322
g9
F0.5
sS'K'
F0.5
ssg2
(g3
g4
(I1
I2
I1
I0
I1
I1
I0
ttRp323
(dp324
g9
F0.5
sS'K'
F0.5
ssg2
(g3
g4
(I2
I0
I0
I1
I0
I0
I0
ttRp325
(dp326
S'R'
F1
ssg2
(g3
g4
(I2
I1
I0
I0
I0
I0
I0
ttRp327
(dp328
S'TR'
p329
F0.5
sS'TH'
p330
F0.5
ssg2
(g3
g4
(I1
I0
I0
I0
I1
I0
I0
ttRp331
(dp332
S'K'
F1
ssg2
(g3
g4
(I0
I4
I0
I1
I0
I0
I0
ttRp333
(dp334
S'R'
F0.5
sg16
F0.5
ss.