c__builtin__
frozenset
p1
((lp2
ccopy_reg
_reconstructor
p3
(ctaskSetup
State
p4
c__builtin__
tuple
p5
(I0
I2
I0
I1
I1
I1
I0
ttRp6
ag3
(g4
g5
(I0
I3
I1
I1
I1
I1
I0
ttRp7
ag3
(g4
g5
(I0
I3
I0
I0
I0
I1
I0
ttRp8
ag3
(g4
g5
(I2
I1
I0
I0
I1
I0
I0
ttRp9
ag3
(g4
g5
(I0
I4
I0
I1
I1
I0
I0
ttRp10
ag3
(g4
g5
(I0
I3
I0
I0
I0
I0
I0
ttRp11
ag3
(g4
g5
(I0
I0
I1
I0
I1
I1
I0
ttRp12
ag3
(g4
g5
(I3
I0
I1
I0
I1
I1
I0
ttRp13
ag3
(g4
g5
(I0
I0
I0
I0
I1
I1
I0
ttRp14
ag3
(g4
g5
(I0
I1
I0
I0
I1
I1
I0
ttRp15
ag3
(g4
g5
(I4
I0
I0
I1
I0
I0
I0
ttRp16
ag3
(g4
g5
(I1
I1
I0
I0
I1
I0
I0
ttRp17
ag3
(g4
g5
(I0
I1
I1
I0
I1
I1
I0
ttRp18
ag3
(g4
g5
(I1
I2
I1
I0
I0
I1
I0
ttRp19
ag3
(g4
g5
(I0
I2
I0
I1
I0
I1
I0
ttRp20
ag3
(g4
g5
(I0
I3
I0
I0
I1
I0
I0
ttRp21
ag3
(g4
g5
(I2
I0
I0
I0
I1
I0
I0
ttRp22
ag3
(g4
g5
(I1
I1
I0
I0
I0
I0
I0
ttRp23
ag3
(g4
g5
(I1
I2
I0
I1
I1
I0
I0
ttRp24
ag3
(g4
g5
(I1
I2
I1
I1
I0
I1
I0
ttRp25
ag3
(g4
g5
(I1
I1
I1
I1
I1
I1
I0
ttRp26
ag3
(g4
g5
(I1
I0
I0
I1
I1
I1
I0
ttRp27
ag3
(g4
g5
(I2
I0
I0
I0
I0
I0
I0
ttRp28
ag3
(g4
g5
(I1
I2
I0
I1
I0
I0
I0
ttRp29
ag3
(g4
g5
(I0
I2
I0
I0
I1
I0
I0
ttRp30
ag3
(g4
g5
(I3
I0
I1
I0
I0
I1
I0
ttRp31
ag3
(g4
g5
(I0
I0
I0
I0
I0
I1
I0
ttRp32
ag3
(g4
g5
(I2
I0
I1
I1
I1
I1
I0
ttRp33
ag3
(g4
g5
(I0
I1
I1
I0
I0
I1
I0
ttRp34
ag3
(g4
g5
(I2
I1
I0
I1
I1
I1
I0
ttRp35
ag3
(g4
g5
(I3
I0
I0
I1
I1
I0
I0
ttRp36
ag3
(g4
g5
(I0
I2
I0
I0
I0
I0
I0
ttRp37
ag3
(g4
g5
(I0
I1
I0
I1
I1
I0
I0
ttRp38
ag3
(g4
g5
(I3
I0
I1
I1
I0
I1
I0
ttRp39
ag3
(g4
g5
(I0
I0
I0
I1
I0
I1
I0
ttRp40
ag3
(g4
g5
(I1
I1
I0
I1
I0
I0
I0
ttRp41
ag3
(g4
g5
(I0
I1
I1
I1
I0
I1
I0
ttRp42
ag3
(g4
g5
(I3
I0
I0
I0
I1
I1
I0
ttRp43
ag3
(g4
g5
(I0
I2
I1
I1
I1
I1
I0
ttRp44
ag3
(g4
g5
(I1
I2
I1
I1
I1
I1
I0
ttRp45
ag3
(g4
g5
(I0
I3
I0
I1
I1
I1
I0
ttRp46
ag3
(g4
g5
(I1
I1
I1
I1
I0
I1
I0
ttRp47
ag3
(g4
g5
(I0
I1
I0
I1
I0
I0
I0
ttRp48
ag3
(g4
g5
(I1
I0
I0
I1
I0
I1
I0
ttRp49
ag3
(g4
g5
(I1
I1
I0
I1
I1
I0
I0
ttRp50
ag3
(g4
g5
(I1
I2
I0
I0
I0
I0
I0
ttRp51
ag3
(g4
g5
(I1
I1
I1
I0
I0
I1
I0
ttRp52
ag3
(g4
g5
(I2
I0
I1
I1
I0
I1
I0
ttRp53
ag3
(g4
g5
(I1
I0
I0
I0
I0
I1
I0
ttRp54
ag3
(g4
g5
(I2
I1
I0
I1
I0
I1
I0
ttRp55
ag3
(g4
g5
(I2
I0
I0
I1
I1
I0
I0
ttRp56
ag3
(g4
g5
(I1
I2
I0
I0
I1
I0
I0
ttRp57
ag3
(g4
g5
(I0
I2
I0
I1
I0
I0
I0
ttRp58
ag3
(g4
g5
(I3
I0
I1
I1
I1
I1
I0
ttRp59
ag3
(g4
g5
(I1
I2
I0
I1
I0
I1
I0
ttRp60
ag3
(g4
g5
(I0
I0
I0
I1
I1
I1
I0
ttRp61
ag3
(g4
g5
(I2
I0
I1
I0
I0
I1
I0
ttRp62
ag3
(g4
g5
(I0
I1
I1
I1
I1
I1
I0
ttRp63
ag3
(g4
g5
(I0
I3
I0
I1
I0
I0
I0
ttRp64
ag3
(g4
g5
(I2
I1
I0
I0
I0
I1
I0
ttRp65
ag3
(g4
g5
(I0
I2
I1
I1
I0
I1
I0
ttRp66
ag3
(g4
g5
(I3
I0
I0
I0
I0
I0
I0
ttRp67
ag3
(g4
g5
(I0
I3
I0
I1
I0
I1
I0
ttRp68
ag3
(g4
g5
(I0
I2
I0
I1
I1
I0
I0
ttRp69
ag3
(g4
g5
(I0
I1
I0
I0
I0
I0
I0
ttRp70
ag3
(g4
g5
(I0
I1
I0
I0
I0
I1
I0
ttRp71
ag3
(g4
g5
(I1
I3
I0
I0
I1
I0
I0
ttRp72
ag3
(g4
g5
(I0
I2
I1
I0
I0
I1
I0
ttRp73
ag3
(g4
g5
(I3
I0
I0
I0
I1
I0
I0
ttRp74
ag3
(g4
g5
(I1
I1
I1
I0
I1
I1
I0
ttRp75
ag3
(g4
g5
(I0
I1
I0
I0
I1
I0
I0
ttRp76
ag3
(g4
g5
(I1
I1
I0
I0
I1
I1
I0
ttRp77
ag3
(g4
g5
(I1
I0
I0
I0
I1
I1
I0
ttRp78
ag3
(g4
g5
(I2
I2
I0
I0
I1
I0
I0
ttRp79
ag3
(g4
g5
(I1
I0
I1
I0
I1
I1
I0
ttRp80
ag3
(g4
g5
(I1
I3
I0
I0
I0
I0
I0
ttRp81
ag3
(g4
g5
(I2
I0
I1
I0
I1
I1
I0
ttRp82
ag3
(g4
g5
(I2
I0
I0
I0
I1
I1
I0
ttRp83
ag3
(g4
g5
(I2
I1
I0
I0
I1
I1
I0
ttRp84
ag3
(g4
g5
(I1
I2
I0
I1
I1
I1
I0
ttRp85
ag3
(g4
g5
(I3
I1
I0
I0
I1
I0
I0
ttRp86
ag3
(g4
g5
(I2
I1
I1
I0
I1
I1
I0
ttRp87
ag3
(g4
g5
(I2
I2
I0
I0
I0
I0
I0
ttRp88
ag3
(g4
g5
(I0
I0
I0
I0
I1
I0
I0
ttRp89
ag3
(g4
g5
(I0
I2
I1
I0
I1
I1
I0
ttRp90
ag3
(g4
g5
(I0
I2
I0
I0
I1
I1
I0
ttRp91
ag3
(g4
g5
(I0
I3
I0
I0
I1
I1
I0
ttRp92
ag3
(g4
g5
(I0
I3
I1
I0
I1
I1
I0
ttRp93
ag3
(g4
g5
(I0
I0
I0
I0
I0
I0
I0
ttRp94
ag3
(g4
g5
(I1
I1
I0
I0
I0
I1
I0
ttRp95
ag3
(g4
g5
(I1
I0
I0
I1
I0
I0
I0
ttRp96
ag3
(g4
g5
(I1
I3
I0
I1
I0
I0
I0
ttRp97
ag3
(g4
g5
(I1
I0
I1
I0
I0
I1
I0
ttRp98
ag3
(g4
g5
(I3
I0
I0
I1
I1
I1
I0
ttRp99
ag3
(g4
g5
(I0
I0
I1
I1
I1
I1
I0
ttRp100
ag3
(g4
g5
(I4
I0
I0
I0
I0
I0
I0
ttRp101
ag3
(g4
g5
(I0
I1
I0
I1
I1
I1
I0
ttRp102
ag3
(g4
g5
(I1
I0
I0
I1
I1
I0
I0
ttRp103
ag3
(g4
g5
(I1
I1
I0
I1
I0
I1
I0
ttRp104
ag3
(g4
g5
(I2
I0
I0
I0
I0
I1
I0
ttRp105
ag3
(g4
g5
(I2
I2
I0
I1
I0
I0
I0
ttRp106
ag3
(g4
g5
(I1
I0
I1
I1
I0
I1
I0
ttRp107
ag3
(g4
g5
(I2
I1
I1
I0
I0
I1
I0
ttRp108
ag3
(g4
g5
(I1
I3
I0
I1
I1
I0
I0
ttRp109
ag3
(g4
g5
(I2
I2
I0
I1
I1
I0
I0
ttRp110
ag3
(g4
g5
(I2
I1
I0
I1
I1
I0
I0
ttRp111
ag3
(g4
g5
(I2
I0
I0
I1
I0
I1
I0
ttRp112
ag3
(g4
g5
(I0
I4
I0
I0
I1
I0
I0
ttRp113
ag3
(g4
g5
(I1
I2
I0
I0
I0
I1
I0
ttRp114
ag3
(g4
g5
(I3
I1
I0
I1
I0
I0
I0
ttRp115
ag3
(g4
g5
(I2
I1
I1
I1
I0
I1
I0
ttRp116
ag3
(g4
g5
(I3
I0
I0
I1
I0
I0
I0
ttRp117
ag3
(g4
g5
(I0
I2
I0
I0
I0
I1
I0
ttRp118
ag3
(g4
g5
(I0
I0
I0
I1
I0
I0
I0
ttRp119
ag3
(g4
g5
(I0
I3
I1
I0
I0
I1
I0
ttRp120
ag3
(g4
g5
(I2
I1
I0
I1
I0
I0
I0
ttRp121
ag3
(g4
g5
(I0
I4
I0
I0
I0
I0
I0
ttRp122
ag3
(g4
g5
(I3
I0
I0
I1
I0
I1
I0
ttRp123
ag3
(g4
g5
(I4
I0
I0
I0
I1
I0
I0
ttRp124
ag3
(g4
g5
(I0
I0
I1
I1
I0
I1
I0
ttRp125
ag3
(g4
g5
(I3
I1
I0
I1
I1
I0
I0
ttRp126
ag3
(g4
g5
(I0
I1
I0
I1
I0
I1
I0
ttRp127
ag3
(g4
g5
(I0
I3
I1
I1
I0
I1
I0
ttRp128
ag3
(g4
g5
(I0
I0
I0
I1
I1
I0
I0
ttRp129
ag3
(g4
g5
(I1
I1
I0
I1
I1
I1
I0
ttRp130
ag3
(g4
g5
(I3
I1
I0
I0
I0
I0
I0
ttRp131
ag3
(g4
g5
(I1
I0
I1
I1
I1
I1
I0
ttRp132
ag3
(g4
g5
(I3
I0
I0
I0
I0
I1
I0
ttRp133
ag3
(g4
g5
(I0
I0
I1
I0
I0
I1
I0
ttRp134
ag3
(g4
g5
(I4
I0
I0
I1
I1
I0
I0
ttRp135
ag3
(g4
g5
(I0
I0
I0
I0
I0
I0
I1
ttRp136
ag3
(g4
g5
(I0
I3
I0
I1
I1
I0
I0
ttRp137
ag3
(g4
g5
(I1
I0
I0
I0
I0
I0
I0
ttRp138
ag3
(g4
g5
(I2
I0
I0
I1
I1
I1
I0
ttRp139
ag3
(g4
g5
(I1
I2
I0
I0
I1
I1
I0
ttRp140
ag3
(g4
g5
(I2
I1
I1
I1
I1
I1
I0
ttRp141
ag3
(g4
g5
(I1
I2
I1
I0
I1
I1
I0
ttRp142
ag3
(g4
g5
(I2
I0
I0
I1
I0
I0
I0
ttRp143
ag3
(g4
g5
(I2
I1
I0
I0
I0
I0
I0
ttRp144
ag3
(g4
g5
(I1
I0
I0
I0
I1
I0
I0
ttRp145
ag3
(g4
g5
(I0
I4
I0
I1
I0
I0
I0
ttRp146
atRp147
.c__builtin__
frozenset
p1
((lp2
ccopy_reg
_reconstructor
p3
(ctaskSetup
State
p4
c__builtin__
tuple
p5
(I1
I3
I0
I0
I0
I0
I0
ttRp6
ag3
(g4
g5
(I2
I2
I0
I0
I0
I0
I0
ttRp7
ag3
(g4
g5
(I3
I1
I0
I0
I0
I0
I0
ttRp8
ag3
(g4
g5
(I4
I0
I0
I0
I0
I0
I0
ttRp9
ag3
(g4
g5
(I0
I4
I0
I0
I0
I0
I0
ttRp10
atRp11
.(dp1
ccopy_reg
_reconstructor
p2
(ctaskSetup
State
p3
c__builtin__
tuple
p4
(I0
I2
I0
I1
I1
I1
I0
ttRp5
c__builtin__
set
p6
((lp7
S'K'
aS'R'
aS'G'
aS'TH'
p8
atRp9
sg2
(g3
g4
(I0
I3
I1
I1
I1
I1
I0
ttRp10
g6
((lp11
S'WG'
p12
aS'K'
aS'R'
ag8
atRp13
sg2
(g3
g4
(I3
I0
I0
I0
I1
I0
I0
ttRp14
g6
((lp15
S'K'
aS'TR'
p16
atRp17
sg2
(g3
g4
(I2
I1
I0
I0
I1
I0
I0
ttRp18
g6
((lp19
S'K'
ag16
ag8
atRp20
sg2
(g3
g4
(I0
I4
I0
I1
I1
I0
I0
ttRp21
g6
((lp22
S'K'
aS'R'
ag8
atRp23
sg2
(g3
g4
(I3
I0
I0
I0
I1
I1
I0
ttRp24
g6
((lp25
S'K'
ag16
aS'G'
atRp26
sg2
(g3
g4
(I0
I0
I1
I0
I1
I1
I0
ttRp27
g6
((lp28
g12
aS'K'
atRp29
sg2
(g3
g4
(I3
I0
I1
I0
I1
I1
I0
ttRp30
g6
((lp31
g12
aS'K'
ag16
atRp32
sg2
(g3
g4
(I0
I0
I0
I0
I1
I1
I0
ttRp33
g6
((lp34
S'K'
aS'G'
atRp35
sg2
(g3
g4
(I0
I1
I0
I0
I1
I1
I0
ttRp36
g6
((lp37
S'K'
aS'G'
ag8
atRp38
sg2
(g3
g4
(I3
I0
I0
I1
I0
I1
I0
ttRp39
g6
((lp40
S'R'
ag16
aS'G'
atRp41
sg2
(g3
g4
(I1
I1
I0
I0
I1
I0
I0
ttRp42
g6
((lp43
S'K'
ag16
ag8
atRp44
sg2
(g3
g4
(I0
I1
I1
I0
I1
I1
I0
ttRp45
g6
((lp46
g12
aS'K'
ag8
atRp47
sg2
(g3
g4
(I1
I2
I1
I0
I0
I1
I0
ttRp48
g6
((lp49
g12
ag16
ag8
atRp50
sg2
(g3
g4
(I3
I1
I0
I1
I1
I0
I0
ttRp51
g6
((lp52
S'K'
aS'R'
ag16
ag8
atRp53
sg2
(g3
g4
(I0
I3
I0
I0
I1
I0
I0
ttRp54
g6
((lp55
S'K'
ag8
atRp56
sg2
(g3
g4
(I2
I0
I0
I0
I1
I0
I0
ttRp57
g6
((lp58
S'K'
ag16
atRp59
sg2
(g3
g4
(I1
I1
I0
I0
I0
I0
I0
ttRp60
g6
((lp61
g16
ag8
atRp62
sg2
(g3
g4
(I1
I2
I0
I1
I1
I0
I0
ttRp63
g6
((lp64
S'K'
aS'R'
ag16
ag8
atRp65
sg2
(g3
g4
(I1
I2
I1
I1
I0
I1
I0
ttRp66
g6
((lp67
g12
aS'R'
ag16
ag8
atRp68
sg2
(g3
g4
(I1
I1
I1
I1
I1
I1
I0
ttRp69
g6
((lp70
g12
aS'K'
aS'R'
ag16
ag8
atRp71
sg2
(g3
g4
(I1
I0
I0
I1
I1
I1
I0
ttRp72
g6
((lp73
S'K'
aS'R'
ag16
aS'G'
atRp74
sg2
(g3
g4
(I2
I0
I0
I0
I0
I0
I0
ttRp75
g6
((lp76
g16
atRp77
sg2
(g3
g4
(I1
I2
I0
I1
I0
I0
I0
ttRp78
g6
((lp79
S'R'
ag16
ag8
atRp80
sg2
(g3
g4
(I0
I2
I0
I0
I1
I0
I0
ttRp81
g6
((lp82
S'K'
ag8
atRp83
sg2
(g3
g4
(I3
I0
I1
I0
I0
I1
I0
ttRp84
g6
((lp85
g12
ag16
atRp86
sg2
(g3
g4
(I0
I0
I0
I0
I0
I1
I0
ttRp87
g6
((lp88
S'G'
atRp89
sg2
(g3
g4
(I2
I0
I1
I1
I1
I1
I0
ttRp90
g6
((lp91
g12
aS'K'
aS'R'
ag16
atRp92
sg2
(g3
g4
(I0
I1
I1
I0
I0
I1
I0
ttRp93
g6
((lp94
g12
ag8
atRp95
sg2
(g3
g4
(I2
I1
I0
I1
I1
I1
I0
ttRp96
g6
((lp97
S'K'
aS'R'
ag16
aS'G'
ag8
atRp98
sg2
(g3
g4
(I0
I3
I0
I1
I1
I0
I0
ttRp99
g6
((lp100
S'K'
aS'R'
ag8
atRp101
sg2
(g3
g4
(I3
I0
I0
I1
I1
I0
I0
ttRp102
g6
((lp103
S'K'
aS'R'
ag16
atRp104
sg2
(g3
g4
(I0
I2
I0
I0
I0
I0
I0
ttRp105
g6
((lp106
g8
atRp107
sg2
(g3
g4
(I0
I1
I0
I1
I1
I0
I0
ttRp108
g6
((lp109
S'K'
aS'R'
ag8
atRp110
sg2
(g3
g4
(I3
I0
I1
I1
I0
I1
I0
ttRp111
g6
((lp112
g12
aS'R'
ag16
atRp113
sg2
(g3
g4
(I0
I0
I0
I1
I0
I1
I0
ttRp114
g6
((lp115
S'R'
aS'G'
atRp116
sg2
(g3
g4
(I1
I1
I0
I1
I0
I0
I0
ttRp117
g6
((lp118
S'R'
ag16
ag8
atRp119
sg2
(g3
g4
(I0
I1
I1
I1
I0
I1
I0
ttRp120
g6
((lp121
g12
aS'R'
ag8
atRp122
sg2
(g3
g4
(I0
I3
I0
I0
I0
I0
I0
ttRp123
g6
((lp124
g8
atRp125
sg2
(g3
g4
(I0
I2
I1
I1
I1
I1
I0
ttRp126
g6
((lp127
g12
aS'K'
aS'R'
ag8
atRp128
sg2
(g3
g4
(I1
I2
I1
I1
I1
I1
I0
ttRp129
g6
((lp130
g12
aS'K'
aS'R'
ag16
ag8
atRp131
sg2
(g3
g4
(I0
I3
I0
I1
I1
I1
I0
ttRp132
g6
((lp133
S'K'
aS'R'
aS'G'
ag8
atRp134
sg2
(g3
g4
(I1
I1
I1
I1
I0
I1
I0
ttRp135
g6
((lp136
g12
aS'R'
ag16
ag8
atRp137
sg2
(g3
g4
(I0
I1
I0
I1
I0
I0
I0
ttRp138
g6
((lp139
S'R'
ag8
atRp140
sg2
(g3
g4
(I1
I0
I0
I1
I0
I1
I0
ttRp141
g6
((lp142
S'R'
ag16
aS'G'
atRp143
sg2
(g3
g4
(I1
I1
I0
I1
I1
I0
I0
ttRp144
g6
((lp145
S'K'
aS'R'
ag16
ag8
atRp146
sg2
(g3
g4
(I1
I2
I0
I0
I0
I0
I0
ttRp147
g6
((lp148
g16
ag8
atRp149
sg2
(g3
g4
(I1
I1
I1
I0
I0
I1
I0
ttRp150
g6
((lp151
g12
ag16
ag8
atRp152
sg2
(g3
g4
(I2
I0
I1
I1
I0
I1
I0
ttRp153
g6
((lp154
g12
aS'R'
ag16
atRp155
sg2
(g3
g4
(I1
I0
I0
I0
I0
I1
I0
ttRp156
g6
((lp157
g16
aS'G'
atRp158
sg2
(g3
g4
(I2
I1
I0
I1
I0
I1
I0
ttRp159
g6
((lp160
S'R'
ag16
aS'G'
ag8
atRp161
sg2
(g3
g4
(I2
I0
I0
I1
I1
I0
I0
ttRp162
g6
((lp163
S'K'
aS'R'
ag16
atRp164
sg2
(g3
g4
(I1
I2
I0
I0
I1
I0
I0
ttRp165
g6
((lp166
S'K'
ag16
ag8
atRp167
sg2
(g3
g4
(I0
I2
I0
I1
I0
I0
I0
ttRp168
g6
((lp169
S'R'
ag8
atRp170
sg2
(g3
g4
(I3
I0
I1
I1
I1
I1
I0
ttRp171
g6
((lp172
g12
aS'K'
aS'R'
ag16
atRp173
sg2
(g3
g4
(I2
I2
I0
I1
I0
I0
I0
ttRp174
g6
((lp175
S'R'
ag16
ag8
atRp176
sg2
(g3
g4
(I0
I0
I0
I1
I1
I1
I0
ttRp177
g6
((lp178
S'K'
aS'R'
aS'G'
atRp179
sg2
(g3
g4
(I2
I0
I1
I0
I0
I1
I0
ttRp180
g6
((lp181
g12
ag16
atRp182
sg2
(g3
g4
(I0
I1
I1
I1
I1
I1
I0
ttRp183
g6
((lp184
g12
aS'K'
aS'R'
ag8
atRp185
sg2
(g3
g4
(I4
I0
I0
I1
I1
I0
I0
ttRp186
g6
((lp187
S'K'
aS'R'
ag16
atRp188
sg2
(g3
g4
(I2
I1
I0
I0
I0
I1
I0
ttRp189
g6
((lp190
g16
aS'G'
ag8
atRp191
sg2
(g3
g4
(I0
I2
I1
I1
I0
I1
I0
ttRp192
g6
((lp193
g12
aS'R'
ag8
atRp194
sg2
(g3
g4
(I3
I0
I0
I0
I0
I0
I0
ttRp195
g6
((lp196
g16
atRp197
sg2
(g3
g4
(I0
I3
I0
I1
I0
I1
I0
ttRp198
g6
((lp199
S'R'
aS'G'
ag8
atRp200
sg2
(g3
g4
(I0
I2
I0
I1
I1
I0
I0
ttRp201
g6
((lp202
S'K'
aS'R'
ag8
atRp203
sg2
(g3
g4
(I0
I1
I0
I0
I0
I0
I0
ttRp204
g6
((lp205
g8
atRp206
sg2
(g3
g4
(I1
I3
I0
I0
I1
I0
I0
ttRp207
g6
((lp208
S'K'
ag16
ag8
atRp209
sg2
(g3
g4
(I0
I2
I1
I0
I0
I1
I0
ttRp210
g6
((lp211
g12
ag8
atRp212
sg2
(g3
g4
(I0
I3
I0
I0
I0
I1
I0
ttRp213
g6
((lp214
S'G'
ag8
atRp215
sg2
(g3
g4
(I1
I1
I1
I0
I1
I1
I0
ttRp216
g6
((lp217
g12
aS'K'
ag16
ag8
atRp218
sg2
(g3
g4
(I0
I1
I0
I0
I1
I0
I0
ttRp219
g6
((lp220
S'K'
ag8
atRp221
sg2
(g3
g4
(I1
I1
I0
I0
I1
I1
I0
ttRp222
g6
((lp223
S'K'
ag16
aS'G'
ag8
atRp224
sg2
(g3
g4
(I1
I0
I0
I0
I1
I1
I0
ttRp225
g6
((lp226
S'K'
ag16
aS'G'
atRp227
sg2
(g3
g4
(I2
I2
I0
I0
I1
I0
I0
ttRp228
g6
((lp229
S'K'
ag16
ag8
atRp230
sg2
(g3
g4
(I1
I0
I1
I0
I1
I1
I0
ttRp231
g6
((lp232
g12
aS'K'
ag16
atRp233
sg2
(g3
g4
(I1
I3
I0
I0
I0
I0
I0
ttRp234
g6
((lp235
g16
ag8
atRp236
sg2
(g3
g4
(I3
I0
I0
I1
I0
I0
I0
ttRp237
g6
((lp238
S'R'
ag16
atRp239
sg2
(g3
g4
(I2
I0
I1
I0
I1
I1
I0
ttRp240
g6
((lp241
g12
aS'K'
ag16
atRp242
sg2
(g3
g4
(I2
I0
I0
I0
I1
I1
I0
ttRp243
g6
((lp244
S'K'
ag16
aS'G'
atRp245
sg2
(g3
g4
(I2
I1
I0
I0
I1
I1
I0
ttRp246
g6
((lp247
S'K'
ag16
aS'G'
ag8
atRp248
sg2
(g3
g4
(I1
I2
I0
I1
I1
I1
I0
ttRp249
g6
((lp250
S'K'
aS'R'
ag16
aS'G'
ag8
atRp251
sg2
(g3
g4
(I3
I1
I0
I0
I1
I0
I0
ttRp252
g6
((lp253
S'K'
ag16
ag8
atRp254
sg2
(g3
g4
(I2
I1
I1
I0
I1
I1
I0
ttRp255
g6
((lp256
g12
aS'K'
ag16
ag8
atRp257
sg2
(g3
g4
(I2
I2
I0
I0
I0
I0
I0
ttRp258
g6
((lp259
g16
ag8
atRp260
sg2
(g3
g4
(I0
I0
I0
I0
I1
I0
I0
ttRp261
g6
((lp262
S'K'
atRp263
sg2
(g3
g4
(I0
I2
I1
I0
I1
I1
I0
ttRp264
g6
((lp265
g12
aS'K'
ag8
atRp266
sg2
(g3
g4
(I0
I2
I0
I0
I1
I1
I0
ttRp267
g6
((lp268
S'K'
aS'G'
ag8
atRp269
sg2
(g3
g4
(I0
I3
I0
I0
I1
I1
I0
ttRp270
g6
((lp271
S'K'
aS'G'
ag8
atRp272
sg2
(g3
g4
(I0
I3
I1
I0
I1
I1
I0
ttRp273
g6
((lp274
g12
aS'K'
ag8
atRp275
sg2
(g3
g4
(I0
I0
I0
I0
I0
I0
I0
ttRp276
g6
((lp277
S'WS'
p278
atRp279
sg2
(g3
g4
(I1
I1
I0
I0
I0
I1
I0
ttRp280
g6
((lp281
g16
aS'G'
ag8
atRp282
sg2
(g3
g4
(I2
I0
I0
I1
I0
I1
I0
ttRp283
g6
((lp284
S'R'
ag16
aS'G'
atRp285
sg2
(g3
g4
(I1
I3
I0
I1
I0
I0
I0
ttRp286
g6
((lp287
S'R'
ag16
ag8
atRp288
sg2
(g3
g4
(I1
I0
I1
I0
I0
I1
I0
ttRp289
g6
((lp290
g12
ag16
atRp291
sg2
(g3
g4
(I3
I0
I0
I1
I1
I1
I0
ttRp292
g6
((lp293
S'K'
aS'R'
ag16
aS'G'
atRp294
sg2
(g3
g4
(I0
I0
I1
I1
I1
I1
I0
ttRp295
g6
((lp296
g12
aS'K'
aS'R'
atRp297
sg2
(g3
g4
(I4
I0
I0
I0
I0
I0
I0
ttRp298
g6
((lp299
g16
atRp300
sg2
(g3
g4
(I0
I1
I0
I1
I1
I1
I0
ttRp301
g6
((lp302
S'K'
aS'R'
aS'G'
ag8
atRp303
sg2
(g3
g4
(I1
I0
I0
I1
I1
I0
I0
ttRp304
g6
((lp305
S'K'
aS'R'
ag16
atRp306
sg2
(g3
g4
(I1
I1
I0
I1
I0
I1
I0
ttRp307
g6
((lp308
S'R'
ag16
aS'G'
ag8
atRp309
sg2
(g3
g4
(I2
I0
I0
I0
I0
I1
I0
ttRp310
g6
((lp311
g16
aS'G'
atRp312
sg2
(g3
g4
(I1
I2
I0
I1
I0
I1
I0
ttRp313
g6
((lp314
S'R'
ag16
aS'G'
ag8
atRp315
sg2
(g3
g4
(I1
I0
I1
I1
I0
I1
I0
ttRp316
g6
((lp317
g12
aS'R'
ag16
atRp318
sg2
(g3
g4
(I2
I1
I1
I0
I0
I1
I0
ttRp319
g6
((lp320
g12
ag16
ag8
atRp321
sg2
(g3
g4
(I1
I3
I0
I1
I1
I0
I0
ttRp322
g6
((lp323
S'K'
aS'R'
ag16
ag8
atRp324
sg2
(g3
g4
(I2
I1
I0
I1
I1
I0
I0
ttRp325
g6
((lp326
S'K'
aS'R'
ag16
ag8
atRp327
sg2
(g3
g4
(I1
I0
I0
I1
I0
I0
I0
ttRp328
g6
((lp329
S'R'
ag16
atRp330
sg2
(g3
g4
(I0
I4
I0
I0
I1
I0
I0
ttRp331
g6
((lp332
S'K'
ag8
atRp333
sg2
(g3
g4
(I1
I2
I0
I0
I0
I1
I0
ttRp334
g6
((lp335
g16
aS'G'
ag8
atRp336
sg2
(g3
g4
(I3
I1
I0
I1
I0
I0
I0
ttRp337
g6
((lp338
S'R'
ag16
ag8
atRp339
sg2
(g3
g4
(I2
I1
I1
I1
I0
I1
I0
ttRp340
g6
((lp341
g12
aS'R'
ag16
ag8
atRp342
sg2
(g3
g4
(I2
I2
I0
I1
I1
I0
I0
ttRp343
g6
((lp344
S'K'
aS'R'
ag16
ag8
atRp345
sg2
(g3
g4
(I0
I2
I0
I0
I0
I1
I0
ttRp346
g6
((lp347
S'G'
ag8
atRp348
sg2
(g3
g4
(I0
I0
I0
I1
I0
I0
I0
ttRp349
g6
((lp350
S'R'
atRp351
sg2
(g3
g4
(I0
I3
I1
I0
I0
I1
I0
ttRp352
g6
((lp353
g12
ag8
atRp354
sg2
(g3
g4
(I2
I1
I0
I1
I0
I0
I0
ttRp355
g6
((lp356
S'R'
ag16
ag8
atRp357
sg2
(g3
g4
(I0
I4
I0
I0
I0
I0
I0
ttRp358
g6
((lp359
g8
atRp360
sg2
(g3
g4
(I4
I0
I0
I1
I0
I0
I0
ttRp361
g6
((lp362
S'R'
ag16
atRp363
sg2
(g3
g4
(I4
I0
I0
I0
I1
I0
I0
ttRp364
g6
((lp365
S'K'
ag16
atRp366
sg2
(g3
g4
(I0
I0
I1
I1
I0
I1
I0
ttRp367
g6
((lp368
g12
aS'R'
atRp369
sg2
(g3
g4
(I0
I2
I0
I1
I0
I1
I0
ttRp370
g6
((lp371
S'R'
aS'G'
ag8
atRp372
sg2
(g3
g4
(I0
I1
I0
I1
I0
I1
I0
ttRp373
g6
((lp374
S'R'
aS'G'
ag8
atRp375
sg2
(g3
g4
(I0
I3
I1
I1
I0
I1
I0
ttRp376
g6
((lp377
g12
aS'R'
ag8
atRp378
sg2
(g3
g4
(I0
I0
I0
I1
I1
I0
I0
ttRp379
g6
((lp380
S'K'
aS'R'
atRp381
sg2
(g3
g4
(I1
I1
I0
I1
I1
I1
I0
ttRp382
g6
((lp383
S'K'
aS'R'
ag16
aS'G'
ag8
atRp384
sg2
(g3
g4
(I3
I1
I0
I0
I0
I0
I0
ttRp385
g6
((lp386
g16
ag8
atRp387
sg2
(g3
g4
(I1
I0
I1
I1
I1
I1
I0
ttRp388
g6
((lp389
g12
aS'K'
aS'R'
ag16
atRp390
sg2
(g3
g4
(I3
I0
I0
I0
I0
I1
I0
ttRp391
g6
((lp392
g16
aS'G'
atRp393
sg2
(g3
g4
(I0
I0
I1
I0
I0
I1
I0
ttRp394
g6
((lp395
g12
atRp396
sg2
(g3
g4
(I0
I3
I0
I1
I0
I0
I0
ttRp397
g6
((lp398
S'R'
ag8
atRp399
sg2
(g3
g4
(I0
I0
I0
I0
I0
I0
I1
ttRp400
g6
((lp401
S'X'
atRp402
sg2
(g3
g4
(I0
I1
I0
I0
I0
I1
I0
ttRp403
g6
((lp404
S'G'
ag8
atRp405
sg2
(g3
g4
(I1
I0
I0
I0
I0
I0
I0
ttRp406
g6
((lp407
g16
atRp408
sg2
(g3
g4
(I2
I0
I0
I1
I1
I1
I0
ttRp409
g6
((lp410
S'K'
aS'R'
ag16
aS'G'
atRp411
sg2
(g3
g4
(I1
I2
I0
I0
I1
I1
I0
ttRp412
g6
((lp413
S'K'
ag16
aS'G'
ag8
atRp414
sg2
(g3
g4
(I2
I1
I1
I1
I1
I1
I0
ttRp415
g6
((lp416
g12
aS'K'
aS'R'
ag16
ag8
atRp417
sg2
(g3
g4
(I1
I2
I1
I0
I1
I1
I0
ttRp418
g6
((lp419
g12
aS'K'
ag16
ag8
atRp420
sg2
(g3
g4
(I2
I0
I0
I1
I0
I0
I0
ttRp421
g6
((lp422
S'R'
ag16
atRp423
sg2
(g3
g4
(I2
I1
I0
I0
I0
I0
I0
ttRp424
g6
((lp425
g16
ag8
atRp426
sg2
(g3
g4
(I1
I0
I0
I0
I1
I0
I0
ttRp427
g6
((lp428
S'K'
ag16
atRp429
sg2
(g3
g4
(I0
I4
I0
I1
I0
I0
I0
ttRp430
g6
((lp431
S'R'
ag8
atRp432
s.