c__builtin__
set
p1
((lp2
ccopy_reg
_reconstructor
p3
(ctaskSetup
State
p4
c__builtin__
tuple
p5
(I0
I2
I0
I1
I1
I1
I0
ttRp6
ag3
(g4
g5
(I0
I3
I1
I1
I1
I1
I0
ttRp7
ag3
(g4
g5
(I3
I0
I0
I0
I1
I0
I0
ttRp8
ag3
(g4
g5
(I2
I1
I0
I0
I1
I0
I0
ttRp9
ag3
(g4
g5
(I0
I4
I0
I1
I1
I0
I0
ttRp10
ag3
(g4
g5
(I0
I3
I0
I0
I0
I0
I0
ttRp11
ag3
(g4
g5
(I0
I0
I1
I0
I1
I1
I0
ttRp12
ag3
(g4
g5
(I3
I0
I1
I0
I1
I1
I0
ttRp13
ag3
(g4
g5
(I0
I0
I0
I0
I1
I1
I0
ttRp14
ag3
(g4
g5
(I0
I1
I0
I0
I1
I1
I0
ttRp15
ag3
(g4
g5
(I3
I0
I0
I1
I0
I1
I0
ttRp16
ag3
(g4
g5
(I1
I1
I0
I0
I1
I0
I0
ttRp17
ag3
(g4
g5
(I0
I1
I1
I0
I1
I1
I0
ttRp18
ag3
(g4
g5
(I1
I2
I1
I0
I0
I1
I0
ttRp19
ag3
(g4
g5
(I3
I1
I0
I1
I1
I0
I0
ttRp20
ag3
(g4
g5
(I0
I3
I0
I0
I1
I0
I0
ttRp21
ag3
(g4
g5
(I2
I0
I0
I0
I1
I0
I0
ttRp22
ag3
(g4
g5
(I1
I1
I0
I0
I0
I0
I0
ttRp23
ag3
(g4
g5
(I1
I2
I0
I1
I1
I0
I0
ttRp24
ag3
(g4
g5
(I1
I2
I1
I1
I0
I1
I0
ttRp25
ag3
(g4
g5
(I1
I1
I1
I1
I1
I1
I0
ttRp26
ag3
(g4
g5
(I1
I0
I0
I1
I1
I1
I0
ttRp27
ag3
(g4
g5
(I2
I0
I0
I0
I0
I0
I0
ttRp28
ag3
(g4
g5
(I1
I2
I0
I1
I0
I0
I0
ttRp29
ag3
(g4
g5
(I0
I2
I0
I0
I1
I0
I0
ttRp30
ag3
(g4
g5
(I3
I0
I1
I0
I0
I1
I0
ttRp31
ag3
(g4
g5
(I0
I0
I0
I0
I0
I1
I0
ttRp32
ag3
(g4
g5
(I2
I0
I1
I1
I1
I1
I0
ttRp33
ag3
(g4
g5
(I0
I1
I1
I0
I0
I1
I0
ttRp34
ag3
(g4
g5
(I2
I1
I0
I1
I1
I1
I0
ttRp35
ag3
(g4
g5
(I3
I0
I0
I1
I1
I0
I0
ttRp36
ag3
(g4
g5
(I0
I2
I0
I0
I0
I0
I0
ttRp37
ag3
(g4
g5
(I0
I1
I0
I1
I1
I0
I0
ttRp38
ag3
(g4
g5
(I3
I0
I1
I1
I0
I1
I0
ttRp39
ag3
(g4
g5
(I0
I0
I0
I1
I0
I1
I0
ttRp40
ag3
(g4
g5
(I1
I1
I0
I1
I0
I0
I0
ttRp41
ag3
(g4
g5
(I0
I1
I1
I1
I0
I1
I0
ttRp42
ag3
(g4
g5
(I3
I0
I0
I0
I1
I1
I0
ttRp43
ag3
(g4
g5
(I0
I2
I1
I1
I1
I1
I0
ttRp44
ag3
(g4
g5
(I1
I2
I1
I1
I1
I1
I0
ttRp45
ag3
(g4
g5
(I0
I3
I0
I1
I1
I1
I0
ttRp46
ag3
(g4
g5
(I1
I1
I1
I1
I0
I1
I0
ttRp47
ag3
(g4
g5
(I0
I1
I0
I1
I0
I0
I0
ttRp48
ag3
(g4
g5
(I1
I0
I0
I1
I0
I1
I0
ttRp49
ag3
(g4
g5
(I1
I1
I0
I1
I1
I0
I0
ttRp50
ag3
(g4
g5
(I1
I2
I0
I0
I0
I0
I0
ttRp51
ag3
(g4
g5
(I1
I1
I1
I0
I0
I1
I0
ttRp52
ag3
(g4
g5
(I2
I0
I1
I1
I0
I1
I0
ttRp53
ag3
(g4
g5
(I1
I0
I0
I0
I0
I1
I0
ttRp54
ag3
(g4
g5
(I2
I1
I0
I1
I0
I1
I0
ttRp55
ag3
(g4
g5
(I2
I0
I0
I1
I1
I0
I0
ttRp56
ag3
(g4
g5
(I1
I2
I0
I0
I1
I0
I0
ttRp57
ag3
(g4
g5
(I0
I2
I0
I1
I0
I0
I0
ttRp58
ag3
(g4
g5
(I3
I0
I1
I1
I1
I1
I0
ttRp59
ag3
(g4
g5
(I2
I2
I0
I1
I0
I0
I0
ttRp60
ag3
(g4
g5
(I0
I0
I0
I1
I1
I1
I0
ttRp61
ag3
(g4
g5
(I2
I0
I1
I0
I0
I1
I0
ttRp62
ag3
(g4
g5
(I0
I1
I1
I1
I1
I1
I0
ttRp63
ag3
(g4
g5
(I4
I0
I0
I1
I1
I0
I0
ttRp64
ag3
(g4
g5
(I2
I1
I0
I0
I0
I1
I0
ttRp65
ag3
(g4
g5
(I0
I2
I1
I1
I0
I1
I0
ttRp66
ag3
(g4
g5
(I3
I0
I0
I0
I0
I0
I0
ttRp67
ag3
(g4
g5
(I4
I0
I0
I1
I0
I0
I0
ttRp68
ag3
(g4
g5
(I0
I3
I0
I1
I0
I1
I0
ttRp69
ag3
(g4
g5
(I0
I2
I0
I1
I1
I0
I0
ttRp70
ag3
(g4
g5
(I0
I1
I0
I0
I0
I0
I0
ttRp71
ag3
(g4
g5
(I1
I3
I0
I0
I1
I0
I0
ttRp72
ag3
(g4
g5
(I0
I2
I1
I0
I0
I1
I0
ttRp73
ag3
(g4
g5
(I0
I3
I0
I0
I0
I1
I0
ttRp74
ag3
(g4
g5
(I1
I1
I1
I0
I1
I1
I0
ttRp75
ag3
(g4
g5
(I0
I1
I0
I0
I1
I0
I0
ttRp76
ag3
(g4
g5
(I1
I1
I0
I0
I1
I1
I0
ttRp77
ag3
(g4
g5
(I1
I0
I0
I0
I1
I1
I0
ttRp78
ag3
(g4
g5
(I2
I2
I0
I0
I1
I0
I0
ttRp79
ag3
(g4
g5
(I1
I0
I1
I0
I1
I1
I0
ttRp80
ag3
(g4
g5
(I1
I3
I0
I0
I0
I0
I0
ttRp81
ag3
(g4
g5
(I3
I0
I0
I1
I0
I0
I0
ttRp82
ag3
(g4
g5
(I2
I0
I1
I0
I1
I1
I0
ttRp83
ag3
(g4
g5
(I2
I0
I0
I0
I1
I1
I0
ttRp84
ag3
(g4
g5
(I2
I1
I0
I0
I1
I1
I0
ttRp85
ag3
(g4
g5
(I1
I2
I0
I1
I1
I1
I0
ttRp86
ag3
(g4
g5
(I3
I1
I0
I0
I1
I0
I0
ttRp87
ag3
(g4
g5
(I2
I1
I1
I0
I1
I1
I0
ttRp88
ag3
(g4
g5
(I2
I2
I0
I0
I0
I0
I0
ttRp89
ag3
(g4
g5
(I0
I0
I0
I0
I1
I0
I0
ttRp90
ag3
(g4
g5
(I0
I2
I1
I0
I1
I1
I0
ttRp91
ag3
(g4
g5
(I0
I2
I0
I0
I1
I1
I0
ttRp92
ag3
(g4
g5
(I0
I3
I0
I0
I1
I1
I0
ttRp93
ag3
(g4
g5
(I0
I3
I1
I0
I1
I1
I0
ttRp94
ag3
(g4
g5
(I0
I0
I0
I0
I0
I0
I0
ttRp95
ag3
(g4
g5
(I1
I1
I0
I0
I0
I1
I0
ttRp96
ag3
(g4
g5
(I2
I0
I0
I1
I0
I1
I0
ttRp97
ag3
(g4
g5
(I1
I3
I0
I1
I0
I0
I0
ttRp98
ag3
(g4
g5
(I1
I0
I1
I0
I0
I1
I0
ttRp99
ag3
(g4
g5
(I3
I0
I0
I1
I1
I1
I0
ttRp100
ag3
(g4
g5
(I0
I0
I1
I1
I1
I1
I0
ttRp101
ag3
(g4
g5
(I4
I0
I0
I0
I0
I0
I0
ttRp102
ag3
(g4
g5
(I0
I1
I0
I1
I1
I1
I0
ttRp103
ag3
(g4
g5
(I1
I0
I0
I1
I1
I0
I0
ttRp104
ag3
(g4
g5
(I1
I1
I0
I1
I0
I1
I0
ttRp105
ag3
(g4
g5
(I2
I0
I0
I0
I0
I1
I0
ttRp106
ag3
(g4
g5
(I1
I2
I0
I1
I0
I1
I0
ttRp107
ag3
(g4
g5
(I1
I0
I1
I1
I0
I1
I0
ttRp108
ag3
(g4
g5
(I2
I1
I1
I0
I0
I1
I0
ttRp109
ag3
(g4
g5
(I1
I3
I0
I1
I1
I0
I0
ttRp110
ag3
(g4
g5
(I2
I1
I0
I1
I1
I0
I0
ttRp111
ag3
(g4
g5
(I1
I0
I0
I1
I0
I0
I0
ttRp112
ag3
(g4
g5
(I0
I4
I0
I0
I1
I0
I0
ttRp113
ag3
(g4
g5
(I1
I2
I0
I0
I0
I1
I0
ttRp114
ag3
(g4
g5
(I3
I1
I0
I1
I0
I0
I0
ttRp115
ag3
(g4
g5
(I2
I1
I1
I1
I0
I1
I0
ttRp116
ag3
(g4
g5
(I2
I2
I0
I1
I1
I0
I0
ttRp117
ag3
(g4
g5
(I0
I2
I0
I0
I0
I1
I0
ttRp118
ag3
(g4
g5
(I0
I0
I0
I1
I0
I0
I0
ttRp119
ag3
(g4
g5
(I0
I3
I1
I0
I0
I1
I0
ttRp120
ag3
(g4
g5
(I2
I1
I0
I1
I0
I0
I0
ttRp121
ag3
(g4
g5
(I0
I4
I0
I0
I0
I0
I0
ttRp122
ag3
(g4
g5
(I0
I3
I0
I1
I1
I0
I0
ttRp123
ag3
(g4
g5
(I4
I0
I0
I0
I1
I0
I0
ttRp124
ag3
(g4
g5
(I0
I0
I1
I1
I0
I1
I0
ttRp125
ag3
(g4
g5
(I0
I2
I0
I1
I0
I1
I0
ttRp126
ag3
(g4
g5
(I0
I1
I0
I1
I0
I1
I0
ttRp127
ag3
(g4
g5
(I0
I3
I1
I1
I0
I1
I0
ttRp128
ag3
(g4
g5
(I0
I0
I0
I1
I1
I0
I0
ttRp129
ag3
(g4
g5
(I1
I1
I0
I1
I1
I1
I0
ttRp130
ag3
(g4
g5
(I3
I1
I0
I0
I0
I0
I0
ttRp131
ag3
(g4
g5
(I1
I0
I1
I1
I1
I1
I0
ttRp132
ag3
(g4
g5
(I3
I0
I0
I0
I0
I1
I0
ttRp133
ag3
(g4
g5
(I0
I0
I1
I0
I0
I1
I0
ttRp134
ag3
(g4
g5
(I0
I3
I0
I1
I0
I0
I0
ttRp135
ag3
(g4
g5
(I0
I0
I0
I0
I0
I0
I1
ttRp136
ag3
(g4
g5
(I0
I1
I0
I0
I0
I1
I0
ttRp137
ag3
(g4
g5
(I1
I0
I0
I0
I0
I0
I0
ttRp138
ag3
(g4
g5
(I2
I0
I0
I1
I1
I1
I0
ttRp139
ag3
(g4
g5
(I1
I2
I0
I0
I1
I1
I0
ttRp140
ag3
(g4
g5
(I2
I1
I1
I1
I1
I1
I0
ttRp141
ag3
(g4
g5
(I1
I2
I1
I0
I1
I1
I0
ttRp142
ag3
(g4
g5
(I2
I0
I0
I1
I0
I0
I0
ttRp143
ag3
(g4
g5
(I2
I1
I0
I0
I0
I0
I0
ttRp144
ag3
(g4
g5
(I1
I0
I0
I0
I1
I0
I0
ttRp145
ag3
(g4
g5
(I0
I4
I0
I1
I0
I0
I0
ttRp146
atRp147
.c__builtin__
set
p1
((lp2
ccopy_reg
_reconstructor
p3
(ctaskSetup
State
p4
c__builtin__
tuple
p5
(I3
I1
I0
I0
I0
I0
I0
ttRp6
ag3
(g4
g5
(I1
I3
I0
I0
I0
I0
I0
ttRp7
ag3
(g4
g5
(I0
I4
I0
I0
I0
I0
I0
ttRp8
ag3
(g4
g5
(I4
I0
I0
I0
I0
I0
I0
ttRp9
ag3
(g4
g5
(I2
I2
I0
I0
I0
I0
I0
ttRp10
atRp11
.(dp1
ccopy_reg
_reconstructor
p2
(ctaskSetup
State
p3
c__builtin__
tuple
p4
(I0
I2
I0
I1
I1
I1
I0
ttRp5
c__builtin__
set
p6
((lp7
S'K'
aS'G'
atRp8
sg2
(g3
g4
(I0
I3
I1
I1
I1
I1
I0
ttRp9
g6
((lp10
S'WG'
p11
aS'K'
atRp12
sg2
(g3
g4
(I0
I3
I0
I0
I0
I1
I0
ttRp13
g6
((lp14
S'G'
atRp15
sg2
(g3
g4
(I2
I1
I0
I0
I1
I0
I0
ttRp16
g6
((lp17
S'K'
aS'TH'
p18
atRp19
sg2
(g3
g4
(I0
I4
I0
I1
I1
I0
I0
ttRp20
g6
((lp21
S'K'
aS'R'
ag18
atRp22
sg2
(g3
g4
(I3
I0
I0
I0
I1
I1
I0
ttRp23
g6
((lp24
S'K'
aS'G'
atRp25
sg2
(g3
g4
(I0
I0
I1
I0
I1
I1
I0
ttRp26
g6
((lp27
g11
aS'K'
atRp28
sg2
(g3
g4
(I3
I0
I1
I0
I1
I1
I0
ttRp29
g6
((lp30
g11
aS'K'
atRp31
sg2
(g3
g4
(I0
I0
I0
I0
I1
I1
I0
ttRp32
g6
((lp33
S'K'
aS'G'
atRp34
sg2
(g3
g4
(I0
I1
I0
I0
I1
I1
I0
ttRp35
g6
((lp36
S'K'
aS'G'
atRp37
sg2
(g3
g4
(I4
I0
I0
I1
I0
I0
I0
ttRp38
g6
((lp39
S'R'
aS'TR'
p40
atRp41
sg2
(g3
g4
(I1
I1
I0
I0
I1
I0
I0
ttRp42
g6
((lp43
S'K'
ag18
atRp44
sg2
(g3
g4
(I0
I1
I1
I0
I1
I1
I0
ttRp45
g6
((lp46
g11
aS'K'
atRp47
sg2
(g3
g4
(I1
I2
I1
I0
I0
I1
I0
ttRp48
g6
((lp49
g11
ag40
atRp50
sg2
(g3
g4
(I0
I2
I0
I1
I0
I1
I0
ttRp51
g6
((lp52
S'R'
aS'G'
atRp53
sg2
(g3
g4
(I0
I3
I0
I0
I1
I0
I0
ttRp54
g6
((lp55
S'K'
ag18
atRp56
sg2
(g3
g4
(I2
I0
I0
I0
I1
I0
I0
ttRp57
g6
((lp58
S'K'
atRp59
sg2
(g3
g4
(I1
I1
I0
I0
I0
I0
I0
ttRp60
g6
((lp61
g40
ag18
atRp62
sg2
(g3
g4
(I1
I2
I0
I1
I1
I0
I0
ttRp63
g6
((lp64
S'K'
aS'R'
ag18
atRp65
sg2
(g3
g4
(I1
I2
I1
I1
I0
I1
I0
ttRp66
g6
((lp67
g11
aS'R'
ag40
atRp68
sg2
(g3
g4
(I1
I1
I1
I1
I1
I1
I0
ttRp69
g6
((lp70
g11
aS'K'
atRp71
sg2
(g3
g4
(I1
I0
I0
I1
I1
I1
I0
ttRp72
g6
((lp73
S'K'
aS'G'
atRp74
sg2
(g3
g4
(I2
I0
I0
I0
I0
I0
I0
ttRp75
g6
((lp76
g40
atRp77
sg2
(g3
g4
(I1
I2
I0
I1
I0
I0
I0
ttRp78
g6
((lp79
S'R'
ag40
ag18
atRp80
sg2
(g3
g4
(I0
I2
I0
I0
I1
I0
I0
ttRp81
g6
((lp82
S'K'
ag18
atRp83
sg2
(g3
g4
(I3
I0
I1
I0
I0
I1
I0
ttRp84
g6
((lp85
g11
ag40
atRp86
sg2
(g3
g4
(I0
I0
I0
I0
I0
I1
I0
ttRp87
g6
((lp88
S'G'
atRp89
sg2
(g3
g4
(I2
I0
I1
I1
I1
I1
I0
ttRp90
g6
((lp91
g11
aS'K'
atRp92
sg2
(g3
g4
(I0
I1
I1
I0
I0
I1
I0
ttRp93
g6
((lp94
g11
atRp95
sg2
(g3
g4
(I2
I1
I0
I1
I1
I1
I0
ttRp96
g6
((lp97
S'K'
aS'G'
atRp98
sg2
(g3
g4
(I3
I0
I0
I1
I1
I0
I0
ttRp99
g6
((lp100
S'K'
aS'R'
atRp101
sg2
(g3
g4
(I0
I2
I0
I0
I0
I0
I0
ttRp102
g6
((lp103
g18
atRp104
sg2
(g3
g4
(I0
I1
I0
I1
I1
I0
I0
ttRp105
g6
((lp106
S'K'
aS'R'
ag18
atRp107
sg2
(g3
g4
(I3
I0
I1
I1
I0
I1
I0
ttRp108
g6
((lp109
g11
aS'R'
ag40
atRp110
sg2
(g3
g4
(I0
I0
I0
I1
I0
I1
I0
ttRp111
g6
((lp112
S'R'
aS'G'
atRp113
sg2
(g3
g4
(I1
I1
I0
I1
I0
I0
I0
ttRp114
g6
((lp115
S'R'
ag40
ag18
atRp116
sg2
(g3
g4
(I0
I1
I1
I1
I0
I1
I0
ttRp117
g6
((lp118
g11
aS'R'
atRp119
sg2
(g3
g4
(I0
I3
I0
I0
I0
I0
I0
ttRp120
g6
((lp121
g18
atRp122
sg2
(g3
g4
(I0
I2
I1
I1
I1
I1
I0
ttRp123
g6
((lp124
g11
aS'K'
atRp125
sg2
(g3
g4
(I1
I2
I1
I1
I1
I1
I0
ttRp126
g6
((lp127
g11
aS'K'
atRp128
sg2
(g3
g4
(I0
I3
I0
I1
I1
I1
I0
ttRp129
g6
((lp130
S'K'
aS'G'
atRp131
sg2
(g3
g4
(I1
I1
I1
I1
I0
I1
I0
ttRp132
g6
((lp133
g11
aS'R'
ag40
atRp134
sg2
(g3
g4
(I0
I1
I0
I1
I0
I0
I0
ttRp135
g6
((lp136
S'R'
ag18
atRp137
sg2
(g3
g4
(I1
I0
I0
I1
I0
I1
I0
ttRp138
g6
((lp139
S'R'
ag40
aS'G'
atRp140
sg2
(g3
g4
(I1
I1
I0
I1
I1
I0
I0
ttRp141
g6
((lp142
S'K'
aS'R'
ag18
atRp143
sg2
(g3
g4
(I1
I2
I0
I0
I0
I0
I0
ttRp144
g6
((lp145
g40
ag18
atRp146
sg2
(g3
g4
(I1
I1
I1
I0
I0
I1
I0
ttRp147
g6
((lp148
g11
ag40
atRp149
sg2
(g3
g4
(I2
I0
I1
I1
I0
I1
I0
ttRp150
g6
((lp151
g11
aS'R'
ag40
atRp152
sg2
(g3
g4
(I1
I0
I0
I0
I0
I1
I0
ttRp153
g6
((lp154
g40
aS'G'
atRp155
sg2
(g3
g4
(I2
I1
I0
I1
I0
I1
I0
ttRp156
g6
((lp157
S'R'
ag40
aS'G'
atRp158
sg2
(g3
g4
(I2
I0
I0
I1
I1
I0
I0
ttRp159
g6
((lp160
S'K'
aS'R'
atRp161
sg2
(g3
g4
(I1
I2
I0
I0
I1
I0
I0
ttRp162
g6
((lp163
S'K'
ag18
atRp164
sg2
(g3
g4
(I0
I2
I0
I1
I0
I0
I0
ttRp165
g6
((lp166
S'R'
ag18
atRp167
sg2
(g3
g4
(I3
I0
I1
I1
I1
I1
I0
ttRp168
g6
((lp169
g11
aS'K'
atRp170
sg2
(g3
g4
(I1
I2
I0
I1
I0
I1
I0
ttRp171
g6
((lp172
S'R'
ag40
aS'G'
atRp173
sg2
(g3
g4
(I0
I0
I0
I1
I1
I1
I0
ttRp174
g6
((lp175
S'K'
aS'G'
atRp176
sg2
(g3
g4
(I2
I0
I1
I0
I0
I1
I0
ttRp177
g6
((lp178
g11
ag40
atRp179
sg2
(g3
g4
(I0
I1
I1
I1
I1
I1
I0
ttRp180
g6
((lp181
g11
aS'K'
atRp182
sg2
(g3
g4
(I0
I3
I0
I1
I0
I0
I0
ttRp183
g6
((lp184
S'R'
ag18
atRp185
sg2
(g3
g4
(I2
I1
I0
I0
I0
I1
I0
ttRp186
g6
((lp187
g40
aS'G'
atRp188
sg2
(g3
g4
(I0
I2
I1
I1
I0
I1
I0
ttRp189
g6
((lp190
g11
aS'R'
atRp191
sg2
(g3
g4
(I3
I0
I0
I0
I0
I0
I0
ttRp192
g6
((lp193
g40
atRp194
sg2
(g3
g4
(I0
I3
I0
I1
I0
I1
I0
ttRp195
g6
((lp196
S'R'
aS'G'
atRp197
sg2
(g3
g4
(I0
I2
I0
I1
I1
I0
I0
ttRp198
g6
((lp199
S'K'
aS'R'
ag18
atRp200
sg2
(g3
g4
(I0
I1
I0
I0
I0
I0
I0
ttRp201
g6
((lp202
g18
atRp203
sg2
(g3
g4
(I0
I1
I0
I0
I0
I1
I0
ttRp204
g6
((lp205
S'G'
atRp206
sg2
(g3
g4
(I1
I3
I0
I0
I1
I0
I0
ttRp207
g6
((lp208
S'K'
ag18
atRp209
sg2
(g3
g4
(I0
I2
I1
I0
I0
I1
I0
ttRp210
g6
((lp211
g11
atRp212
sg2
(g3
g4
(I3
I0
I0
I0
I1
I0
I0
ttRp213
g6
((lp214
S'K'
atRp215
sg2
(g3
g4
(I1
I1
I1
I0
I1
I1
I0
ttRp216
g6
((lp217
g11
aS'K'
atRp218
sg2
(g3
g4
(I0
I1
I0
I0
I1
I0
I0
ttRp219
g6
((lp220
S'K'
ag18
atRp221
sg2
(g3
g4
(I1
I1
I0
I0
I1
I1
I0
ttRp222
g6
((lp223
S'K'
aS'G'
atRp224
sg2
(g3
g4
(I1
I0
I0
I0
I1
I1
I0
ttRp225
g6
((lp226
S'K'
aS'G'
atRp227
sg2
(g3
g4
(I2
I2
I0
I0
I1
I0
I0
ttRp228
g6
((lp229
S'K'
ag18
atRp230
sg2
(g3
g4
(I1
I0
I1
I0
I1
I1
I0
ttRp231
g6
((lp232
g11
aS'K'
atRp233
sg2
(g3
g4
(I1
I3
I0
I0
I0
I0
I0
ttRp234
g6
((lp235
g40
ag18
atRp236
sg2
(g3
g4
(I2
I0
I1
I0
I1
I1
I0
ttRp237
g6
((lp238
g11
aS'K'
atRp239
sg2
(g3
g4
(I2
I0
I0
I0
I1
I1
I0
ttRp240
g6
((lp241
S'K'
aS'G'
atRp242
sg2
(g3
g4
(I2
I1
I0
I0
I1
I1
I0
ttRp243
g6
((lp244
S'K'
aS'G'
atRp245
sg2
(g3
g4
(I1
I2
I0
I1
I1
I1
I0
ttRp246
g6
((lp247
S'K'
aS'G'
atRp248
sg2
(g3
g4
(I3
I1
I0
I0
I1
I0
I0
ttRp249
g6
((lp250
S'K'
ag18
atRp251
sg2
(g3
g4
(I2
I1
I1
I0
I1
I1
I0
ttRp252
g6
((lp253
g11
aS'K'
atRp254
sg2
(g3
g4
(I2
I2
I0
I0
I0
I0
I0
ttRp255
g6
((lp256
g40
ag18
atRp257
sg2
(g3
g4
(I0
I0
I0
I0
I1
I0
I0
ttRp258
g6
((lp259
S'K'
atRp260
sg2
(g3
g4
(I0
I2
I1
I0
I1
I1
I0
ttRp261
g6
((lp262
g11
aS'K'
atRp263
sg2
(g3
g4
(I0
I2
I0
I0
I1
I1
I0
ttRp264
g6
((lp265
S'K'
aS'G'
atRp266
sg2
(g3
g4
(I0
I3
I0
I0
I1
I1
I0
ttRp267
g6
((lp268
S'K'
aS'G'
atRp269
sg2
(g3
g4
(I0
I3
I1
I0
I1
I1
I0
ttRp270
g6
((lp271
g11
aS'K'
atRp272
sg2
(g3
g4
(I0
I0
I0
I0
I0
I0
I0
ttRp273
g6
((lp274
S'WS'
p275
atRp276
sg2
(g3
g4
(I1
I1
I0
I0
I0
I1
I0
ttRp277
g6
((lp278
g40
aS'G'
atRp279
sg2
(g3
g4
(I1
I0
I0
I1
I0
I0
I0
ttRp280
g6
((lp281
S'R'
ag40
atRp282
sg2
(g3
g4
(I1
I3
I0
I1
I0
I0
I0
ttRp283
g6
((lp284
S'R'
ag40
ag18
atRp285
sg2
(g3
g4
(I1
I0
I1
I0
I0
I1
I0
ttRp286
g6
((lp287
g11
ag40
atRp288
sg2
(g3
g4
(I3
I0
I0
I1
I1
I1
I0
ttRp289
g6
((lp290
S'K'
aS'G'
atRp291
sg2
(g3
g4
(I0
I0
I1
I1
I1
I1
I0
ttRp292
g6
((lp293
g11
aS'K'
atRp294
sg2
(g3
g4
(I4
I0
I0
I0
I0
I0
I0
ttRp295
g6
((lp296
g40
atRp297
sg2
(g3
g4
(I0
I1
I0
I1
I1
I1
I0
ttRp298
g6
((lp299
S'K'
aS'G'
atRp300
sg2
(g3
g4
(I1
I0
I0
I1
I1
I0
I0
ttRp301
g6
((lp302
S'K'
aS'R'
atRp303
sg2
(g3
g4
(I1
I1
I0
I1
I0
I1
I0
ttRp304
g6
((lp305
S'R'
ag40
aS'G'
atRp306
sg2
(g3
g4
(I2
I0
I0
I0
I0
I1
I0
ttRp307
g6
((lp308
g40
aS'G'
atRp309
sg2
(g3
g4
(I2
I2
I0
I1
I0
I0
I0
ttRp310
g6
((lp311
S'R'
ag40
ag18
atRp312
sg2
(g3
g4
(I1
I0
I1
I1
I0
I1
I0
ttRp313
g6
((lp314
g11
aS'R'
ag40
atRp315
sg2
(g3
g4
(I2
I1
I1
I0
I0
I1
I0
ttRp316
g6
((lp317
g11
ag40
atRp318
sg2
(g3
g4
(I1
I3
I0
I1
I1
I0
I0
ttRp319
g6
((lp320
S'K'
aS'R'
ag18
atRp321
sg2
(g3
g4
(I2
I2
I0
I1
I1
I0
I0
ttRp322
g6
((lp323
S'K'
aS'R'
ag18
atRp324
sg2
(g3
g4
(I2
I1
I0
I1
I1
I0
I0
ttRp325
g6
((lp326
S'K'
aS'R'
ag18
atRp327
sg2
(g3
g4
(I2
I0
I0
I1
I0
I1
I0
ttRp328
g6
((lp329
S'R'
ag40
aS'G'
atRp330
sg2
(g3
g4
(I0
I4
I0
I0
I1
I0
I0
ttRp331
g6
((lp332
S'K'
ag18
atRp333
sg2
(g3
g4
(I1
I2
I0
I0
I0
I1
I0
ttRp334
g6
((lp335
g40
aS'G'
atRp336
sg2
(g3
g4
(I3
I1
I0
I1
I0
I0
I0
ttRp337
g6
((lp338
S'R'
ag40
ag18
atRp339
sg2
(g3
g4
(I2
I1
I1
I1
I0
I1
I0
ttRp340
g6
((lp341
g11
aS'R'
ag40
atRp342
sg2
(g3
g4
(I3
I0
I0
I1
I0
I0
I0
ttRp343
g6
((lp344
S'R'
ag40
atRp345
sg2
(g3
g4
(I0
I2
I0
I0
I0
I1
I0
ttRp346
g6
((lp347
S'G'
atRp348
sg2
(g3
g4
(I0
I0
I0
I1
I0
I0
I0
ttRp349
g6
((lp350
S'R'
atRp351
sg2
(g3
g4
(I0
I3
I1
I0
I0
I1
I0
ttRp352
g6
((lp353
g11
atRp354
sg2
(g3
g4
(I2
I1
I0
I1
I0
I0
I0
ttRp355
g6
((lp356
S'R'
ag40
ag18
atRp357
sg2
(g3
g4
(I0
I4
I0
I0
I0
I0
I0
ttRp358
g6
((lp359
g18
atRp360
sg2
(g3
g4
(I3
I0
I0
I1
I0
I1
I0
ttRp361
g6
((lp362
S'R'
ag40
aS'G'
atRp363
sg2
(g3
g4
(I4
I0
I0
I0
I1
I0
I0
ttRp364
g6
((lp365
S'K'
atRp366
sg2
(g3
g4
(I0
I0
I1
I1
I0
I1
I0
ttRp367
g6
((lp368
g11
aS'R'
atRp369
sg2
(g3
g4
(I3
I1
I0
I1
I1
I0
I0
ttRp370
g6
((lp371
S'K'
aS'R'
ag18
atRp372
sg2
(g3
g4
(I0
I1
I0
I1
I0
I1
I0
ttRp373
g6
((lp374
S'R'
aS'G'
atRp375
sg2
(g3
g4
(I0
I3
I1
I1
I0
I1
I0
ttRp376
g6
((lp377
g11
aS'R'
atRp378
sg2
(g3
g4
(I0
I0
I0
I1
I1
I0
I0
ttRp379
g6
((lp380
S'K'
aS'R'
atRp381
sg2
(g3
g4
(I1
I1
I0
I1
I1
I1
I0
ttRp382
g6
((lp383
S'K'
aS'G'
atRp384
sg2
(g3
g4
(I3
I1
I0
I0
I0
I0
I0
ttRp385
g6
((lp386
g40
ag18
atRp387
sg2
(g3
g4
(I1
I0
I1
I1
I1
I1
I0
ttRp388
g6
((lp389
g11
aS'K'
atRp390
sg2
(g3
g4
(I3
I0
I0
I0
I0
I1
I0
ttRp391
g6
((lp392
g40
aS'G'
atRp393
sg2
(g3
g4
(I0
I0
I1
I0
I0
I1
I0
ttRp394
g6
((lp395
g11
atRp396
sg2
(g3
g4
(I4
I0
I0
I1
I1
I0
I0
ttRp397
g6
((lp398
S'K'
aS'R'
atRp399
sg2
(g3
g4
(I0
I0
I0
I0
I0
I0
I1
ttRp400
g6
((lp401
S'X'
atRp402
sg2
(g3
g4
(I0
I3
I0
I1
I1
I0
I0
ttRp403
g6
((lp404
S'K'
aS'R'
ag18
atRp405
sg2
(g3
g4
(I1
I0
I0
I0
I0
I0
I0
ttRp406
g6
((lp407
g40
atRp408
sg2
(g3
g4
(I2
I0
I0
I1
I1
I1
I0
ttRp409
g6
((lp410
S'K'
aS'G'
atRp411
sg2
(g3
g4
(I1
I2
I0
I0
I1
I1
I0
ttRp412
g6
((lp413
S'K'
aS'G'
atRp414
sg2
(g3
g4
(I2
I1
I1
I1
I1
I1
I0
ttRp415
g6
((lp416
g11
aS'K'
atRp417
sg2
(g3
g4
(I1
I2
I1
I0
I1
I1
I0
ttRp418
g6
((lp419
g11
aS'K'
atRp420
sg2
(g3
g4
(I2
I0
I0
I1
I0
I0
I0
ttRp421
g6
((lp422
S'R'
ag40
atRp423
sg2
(g3
g4
(I2
I1
I0
I0
I0
I0
I0
ttRp424
g6
((lp425
g40
ag18
atRp426
sg2
(g3
g4
(I1
I0
I0
I0
I1
I0
I0
ttRp427
g6
((lp428
S'K'
atRp429
sg2
(g3
g4
(I0
I4
I0
I1
I0
I0
I0
ttRp430
g6
((lp431
S'R'
ag18
atRp432
s.