c__builtin__
set
p1
((lp2
ccopy_reg
_reconstructor
p3
(ctaskSetup
State
p4
c__builtin__
tuple
p5
(I0
I2
I0
I0
I0
I0
I0
ttRp6
ag3
(g4
g5
(I1
I0
I0
I0
I0
I1
I0
ttRp7
ag3
(g4
g5
(I1
I1
I1
I0
I1
I1
I0
ttRp8
ag3
(g4
g5
(I0
I1
I0
I0
I1
I0
I0
ttRp9
ag3
(g4
g5
(I1
I1
I0
I1
I0
I0
I0
ttRp10
ag3
(g4
g5
(I1
I1
I0
I0
I1
I1
I0
ttRp11
ag3
(g4
g5
(I1
I0
I0
I0
I1
I1
I0
ttRp12
ag3
(g4
g5
(I1
I0
I0
I1
I0
I0
I0
ttRp13
ag3
(g4
g5
(I1
I0
I1
I0
I1
I1
I0
ttRp14
ag3
(g4
g5
(I2
I1
I0
I0
I1
I0
I0
ttRp15
ag3
(g4
g5
(I2
I1
I1
I1
I0
I1
I0
ttRp16
ag3
(g4
g5
(I0
I3
I0
I0
I0
I0
I0
ttRp17
ag3
(g4
g5
(I0
I0
I1
I0
I1
I1
I0
ttRp18
ag3
(g4
g5
(I0
I4
I0
I0
I0
I0
I0
ttRp19
ag3
(g4
g5
(I0
I0
I0
I1
I0
I0
I0
ttRp20
ag3
(g4
g5
(I1
I1
I1
I1
I0
I1
I0
ttRp21
ag3
(g4
g5
(I0
I1
I0
I1
I0
I0
I0
ttRp22
ag3
(g4
g5
(I1
I1
I0
I0
I1
I0
I0
ttRp23
ag3
(g4
g5
(I0
I1
I1
I0
I1
I1
I0
ttRp24
ag3
(g4
g5
(I2
I0
I1
I0
I1
I1
I0
ttRp25
ag3
(g4
g5
(I1
I0
I0
I1
I0
I1
I0
ttRp26
ag3
(g4
g5
(I1
I3
I0
I0
I0
I0
I0
ttRp27
ag3
(g4
g5
(I1
I2
I0
I0
I0
I0
I0
ttRp28
ag3
(g4
g5
(I2
I1
I0
I1
I0
I0
I0
ttRp29
ag3
(g4
g5
(I2
I1
I1
I0
I1
I1
I0
ttRp30
ag3
(g4
g5
(I2
I2
I0
I0
I0
I0
I0
ttRp31
ag3
(g4
g5
(I1
I2
I1
I0
I0
I1
I0
ttRp32
ag3
(g4
g5
(I0
I0
I1
I1
I0
I1
I0
ttRp33
ag3
(g4
g5
(I0
I0
I0
I0
I1
I0
I0
ttRp34
ag3
(g4
g5
(I0
I3
I0
I0
I1
I0
I0
ttRp35
ag3
(g4
g5
(I2
I0
I0
I0
I0
I1
I0
ttRp36
ag3
(g4
g5
(I3
I0
I0
I0
I0
I0
I0
ttRp37
ag3
(g4
g5
(I1
I1
I1
I0
I0
I1
I0
ttRp38
ag3
(g4
g5
(I1
I1
I0
I0
I0
I1
I0
ttRp39
ag3
(g4
g5
(I0
I1
I0
I0
I0
I1
I0
ttRp40
ag3
(g4
g5
(I0
I2
I0
I1
I1
I0
I0
ttRp41
ag3
(g4
g5
(I1
I1
I0
I0
I0
I0
I0
ttRp42
ag3
(g4
g5
(I2
I1
I0
I1
I0
I1
I0
ttRp43
ag3
(g4
g5
(I3
I0
I0
I0
I0
I1
I0
ttRp44
ag3
(g4
g5
(I0
I1
I1
I1
I0
I1
I0
ttRp45
ag3
(g4
g5
(I0
I2
I1
I0
I1
I1
I0
ttRp46
ag3
(g4
g5
(I1
I2
I0
I0
I1
I0
I0
ttRp47
ag3
(g4
g5
(I0
I2
I0
I1
I0
I0
I0
ttRp48
ag3
(g4
g5
(I3
I1
I0
I0
I0
I0
I0
ttRp49
ag3
(g4
g5
(I0
I0
I1
I0
I0
I1
I0
ttRp50
ag3
(g4
g5
(I0
I3
I0
I1
I0
I0
I0
ttRp51
ag3
(g4
g5
(I0
I0
I0
I0
I0
I0
I1
ttRp52
ag3
(g4
g5
(I0
I2
I0
I0
I0
I1
I0
ttRp53
ag3
(g4
g5
(I0
I0
I0
I0
I0
I0
I0
ttRp54
ag3
(g4
g5
(I2
I0
I1
I0
I0
I1
I0
ttRp55
ag3
(g4
g5
(I1
I0
I0
I0
I0
I0
I0
ttRp56
ag3
(g4
g5
(I2
I0
I0
I0
I1
I0
I0
ttRp57
ag3
(g4
g5
(I1
I2
I0
I0
I0
I1
I0
ttRp58
ag3
(g4
g5
(I2
I1
I0
I0
I0
I1
I0
ttRp59
ag3
(g4
g5
(I1
I0
I1
I0
I0
I1
I0
ttRp60
ag3
(g4
g5
(I0
I2
I1
I1
I0
I1
I0
ttRp61
ag3
(g4
g5
(I1
I2
I0
I1
I0
I0
I0
ttRp62
ag3
(g4
g5
(I0
I2
I0
I0
I1
I0
I0
ttRp63
ag3
(g4
g5
(I2
I0
I0
I1
I0
I0
I0
ttRp64
ag3
(g4
g5
(I0
I3
I1
I0
I1
I1
I0
ttRp65
ag3
(g4
g5
(I3
I0
I1
I0
I0
I1
I0
ttRp66
ag3
(g4
g5
(I2
I0
I1
I1
I0
I1
I0
ttRp67
ag3
(g4
g5
(I0
I1
I0
I0
I0
I0
I0
ttRp68
ag3
(g4
g5
(I0
I1
I1
I0
I0
I1
I0
ttRp69
ag3
(g4
g5
(I1
I1
I0
I1
I0
I1
I0
ttRp70
ag3
(g4
g5
(I2
I1
I0
I0
I0
I0
I0
ttRp71
ag3
(g4
g5
(I0
I0
I0
I0
I0
I1
I0
ttRp72
ag3
(g4
g5
(I1
I0
I0
I0
I1
I0
I0
ttRp73
ag3
(g4
g5
(I0
I3
I1
I1
I0
I1
I0
ttRp74
ag3
(g4
g5
(I1
I0
I1
I1
I0
I1
I0
ttRp75
ag3
(g4
g5
(I2
I1
I1
I0
I0
I1
I0
ttRp76
ag3
(g4
g5
(I0
I2
I1
I0
I0
I1
I0
ttRp77
ag3
(g4
g5
(I0
I3
I0
I0
I0
I1
I0
ttRp78
ag3
(g4
g5
(I2
I1
I0
I0
I1
I1
I0
ttRp79
ag3
(g4
g5
(I2
I0
I0
I0
I0
I0
I0
ttRp80
atRp81
.(dp1
ccopy_reg
_reconstructor
p2
(ctaskSetup
State
p3
c__builtin__
tuple
p4
(I0
I2
I0
I0
I0
I0
I0
ttRp5
(dp6
S'TH'
p7
I9
ssg2
(g3
g4
(I1
I0
I0
I0
I0
I1
I0
ttRp8
(dp9
S'G'
I9
ssg2
(g3
g4
(I1
I1
I1
I0
I1
I1
I0
ttRp10
(dp11
S'WG'
p12
I3
ssg2
(g3
g4
(I0
I1
I0
I0
I1
I0
I0
ttRp13
(dp14
S'K'
I13
ssg2
(g3
g4
(I1
I1
I0
I1
I0
I0
I0
ttRp15
(dp16
S'R'
I7
ssg2
(g3
g4
(I1
I1
I0
I0
I1
I1
I0
ttRp17
(dp18
S'G'
I2
ssg2
(g3
g4
(I1
I0
I0
I0
I1
I1
I0
ttRp19
(dp20
S'G'
I1
ssg2
(g3
g4
(I1
I0
I0
I1
I0
I0
I0
ttRp21
(dp22
S'R'
I3
ssg2
(g3
g4
(I1
I0
I1
I0
I1
I1
I0
ttRp23
(dp24
S'WG'
p25
I3
ssg2
(g3
g4
(I2
I1
I0
I0
I1
I0
I0
ttRp26
(dp27
S'K'
I6
ssg2
(g3
g4
(I2
I1
I1
I1
I0
I1
I0
ttRp28
(dp29
S'WG'
p30
I1
sS'R'
I1
ssg2
(g3
g4
(I0
I3
I0
I0
I0
I0
I0
ttRp31
(dp32
S'TH'
p33
I5
ssg2
(g3
g4
(I0
I0
I1
I0
I1
I1
I0
ttRp34
(dp35
S'WG'
p36
I2
ssg2
(g3
g4
(I0
I4
I0
I0
I0
I0
I0
ttRp37
(dp38
S'TH'
p39
I2
ssg2
(g3
g4
(I0
I0
I0
I1
I0
I0
I0
ttRp40
(dp41
S'R'
I14
ssg2
(g3
g4
(I1
I1
I1
I1
I0
I1
I0
ttRp42
(dp43
S'WG'
p44
I1
sS'R'
I1
ssg2
(g3
g4
(I0
I1
I0
I1
I0
I0
I0
ttRp45
(dp46
S'R'
I7
ssg2
(g3
g4
(I1
I1
I0
I0
I1
I0
I0
ttRp47
(dp48
S'K'
I13
ssg2
(g3
g4
(I0
I1
I1
I0
I1
I1
I0
ttRp49
(dp50
S'WG'
p51
I1
ssg2
(g3
g4
(I2
I0
I1
I0
I1
I1
I0
ttRp52
(dp53
S'WG'
p54
I1
ssg2
(g3
g4
(I1
I0
I0
I1
I0
I1
I0
ttRp55
(dp56
S'R'
I1
ssg2
(g3
g4
(I1
I3
I0
I0
I0
I0
I0
ttRp57
(dp58
S'TR'
p59
I3
sS'TH'
p60
I3
ssg2
(g3
g4
(I1
I2
I0
I0
I0
I0
I0
ttRp61
(dp62
S'TR'
p63
I4
sS'TH'
p64
I10
ssg2
(g3
g4
(I2
I1
I0
I1
I0
I0
I0
ttRp65
(dp66
S'R'
I3
ssg2
(g3
g4
(I2
I1
I1
I0
I1
I1
I0
ttRp67
(dp68
S'WG'
p69
I2
ssg2
(g3
g4
(I2
I2
I0
I0
I0
I0
I0
ttRp70
(dp71
S'TR'
p72
I12
sS'TH'
p73
I6
ssg2
(g3
g4
(I1
I2
I1
I0
I0
I1
I0
ttRp74
(dp75
S'WG'
p76
I2
ssg2
(g3
g4
(I0
I0
I1
I1
I0
I1
I0
ttRp77
(dp78
S'WG'
p79
I2
sS'R'
I2
ssg2
(g3
g4
(I0
I0
I0
I0
I1
I0
I0
ttRp80
(dp81
S'K'
I30
ssg2
(g3
g4
(I0
I3
I0
I0
I1
I0
I0
ttRp82
(dp83
S'K'
I12
ssg2
(g3
g4
(I2
I0
I0
I0
I0
I1
I0
ttRp84
(dp85
S'G'
I3
ssg2
(g3
g4
(I3
I0
I0
I0
I0
I0
I0
ttRp86
(dp87
S'TR'
p88
I1
ssg2
(g3
g4
(I1
I1
I1
I0
I0
I1
I0
ttRp89
(dp90
S'WG'
p91
I7
ssg2
(g3
g4
(I1
I1
I0
I0
I0
I1
I0
ttRp92
(dp93
S'G'
I8
ssg2
(g3
g4
(I0
I1
I0
I0
I0
I1
I0
ttRp94
(dp95
S'G'
I9
ssg2
(g3
g4
(I0
I2
I0
I1
I1
I0
I0
ttRp96
(dp97
S'K'
I1
ssg2
(g3
g4
(I1
I1
I0
I0
I0
I0
I0
ttRp98
(dp99
S'K'
I1
sS'TR'
p100
I5
sS'TH'
p101
I10
ssg2
(g3
g4
(I2
I1
I0
I1
I0
I1
I0
ttRp102
(dp103
S'R'
I1
ssg2
(g3
g4
(I3
I0
I0
I0
I0
I1
I0
ttRp104
(dp105
S'G'
I1
ssg2
(g3
g4
(I0
I1
I1
I1
I0
I1
I0
ttRp106
(dp107
S'WG'
p108
I1
sS'R'
I1
ssg2
(g3
g4
(I0
I2
I1
I0
I1
I1
I0
ttRp109
(dp110
S'WG'
p111
I1
ssg2
(g3
g4
(I1
I2
I0
I0
I1
I0
I0
ttRp112
(dp113
S'K'
I14
ssg2
(g3
g4
(I0
I2
I0
I1
I0
I0
I0
ttRp114
(dp115
S'R'
I5
ssg2
(g3
g4
(I3
I1
I0
I0
I0
I0
I0
ttRp116
(dp117
S'TH'
p118
I2
ssg2
(g3
g4
(I0
I0
I1
I0
I0
I1
I0
ttRp119
(dp120
S'WG'
p121
I10
ssg2
(g3
g4
(I0
I3
I0
I1
I0
I0
I0
ttRp122
(dp123
S'R'
I8
ssg2
(g3
g4
(I0
I0
I0
I0
I0
I0
I1
ttRp124
(dp125
S'X'
I28
ssg2
(g3
g4
(I0
I2
I0
I0
I0
I1
I0
ttRp126
(dp127
S'G'
I5
ssg2
(g3
g4
(I0
I0
I0
I0
I0
I0
I0
ttRp128
(dp129
S'WS'
p130
I32
ssg2
(g3
g4
(I2
I0
I1
I0
I0
I1
I0
ttRp131
(dp132
S'WG'
p133
I1
ssg2
(g3
g4
(I1
I0
I0
I0
I0
I0
I0
ttRp134
(dp135
S'TR'
p136
I14
ssg2
(g3
g4
(I2
I0
I0
I0
I1
I0
I0
ttRp137
(dp138
S'K'
I3
ssg2
(g3
g4
(I1
I2
I0
I0
I0
I1
I0
ttRp139
(dp140
S'G'
I2
ssg2
(g3
g4
(I2
I1
I0
I0
I0
I1
I0
ttRp141
(dp142
S'G'
I6
ssg2
(g3
g4
(I1
I0
I1
I0
I0
I1
I0
ttRp143
(dp144
S'WG'
p145
I6
ssg2
(g3
g4
(I0
I2
I1
I1
I0
I1
I0
ttRp146
(dp147
S'WG'
p148
I1
sS'R'
I1
ssg2
(g3
g4
(I1
I2
I0
I1
I0
I0
I0
ttRp149
(dp150
S'R'
I2
ssg2
(g3
g4
(I0
I2
I0
I0
I1
I0
I0
ttRp151
(dp152
S'K'
I9
ssg2
(g3
g4
(I2
I0
I0
I1
I0
I0
I0
ttRp153
(dp154
S'R'
I1
ssg2
(g3
g4
(I0
I3
I1
I0
I1
I1
I0
ttRp155
(dp156
S'WG'
p157
I1
ssg2
(g3
g4
(I3
I0
I1
I0
I0
I1
I0
ttRp158
(dp159
S'WG'
p160
I1
ssg2
(g3
g4
(I2
I0
I1
I1
I0
I1
I0
ttRp161
(dp162
S'WG'
p163
I1
sS'R'
I1
ssg2
(g3
g4
(I0
I1
I0
I0
I0
I0
I0
ttRp164
(dp165
S'TH'
p166
I14
ssg2
(g3
g4
(I0
I1
I1
I0
I0
I1
I0
ttRp167
(dp168
S'WG'
p169
I7
ssg2
(g3
g4
(I1
I1
I0
I1
I0
I1
I0
ttRp170
(dp171
S'R'
I2
sS'G'
I1
ssg2
(g3
g4
(I2
I1
I0
I0
I0
I0
I0
ttRp172
(dp173
S'TR'
p174
I4
sS'TH'
p175
I4
ssg2
(g3
g4
(I0
I0
I0
I0
I0
I1
I0
ttRp176
(dp177
S'G'
I14
ssg2
(g3
g4
(I1
I0
I0
I0
I1
I0
I0
ttRp178
(dp179
S'K'
I10
ssg2
(g3
g4
(I0
I3
I1
I1
I0
I1
I0
ttRp180
(dp181
S'WG'
p182
I1
sS'R'
I1
ssg2
(g3
g4
(I1
I0
I1
I1
I0
I1
I0
ttRp183
(dp184
S'WG'
p185
I1
sS'R'
I2
ssg2
(g3
g4
(I2
I1
I1
I0
I0
I1
I0
ttRp186
(dp187
S'WG'
p188
I4
ssg2
(g3
g4
(I0
I2
I1
I0
I0
I1
I0
ttRp189
(dp190
S'WG'
p191
I3
ssg2
(g3
g4
(I0
I3
I0
I0
I0
I1
I0
ttRp192
(dp193
S'G'
I2
ssg2
(g3
g4
(I2
I1
I0
I0
I1
I1
I0
ttRp194
(dp195
S'G'
I1
ssg2
(g3
g4
(I2
I0
I0
I0
I0
I0
I0
ttRp196
(dp197
S'TR'
p198
I4
ss.cnumpy.core.multiarray
_reconstruct
p1
(cnumpy
ndarray
p2
(I0
tS'b'
tRp3
(I1
(I15
tcnumpy
dtype
p4
(S'f8'
I0
I1
tRp5
(I3
S'<'
NNNI-1
I-1
I0
tbI00
S'n\xdb\xb6m\xdb\xb6\x1f@%I\x92$I\x92#@I\x92$I\x92$\x05@\xdb\xb6m\xdb\xb6m\x05@\xdb\xb6m\xdb\xb6m\x12@\x92$I\x92$I\x14@\x00\x00\x00\x00\x00\x00\xf0?\x92$I\x92$I\x02@\x92$I\x92$I\x02@\x92$I\x92$I\xf2?%I\x92$I\x92\x02@\x92$I\x92$I\x02@\x00\x00\x00\x00\x00\x00\xf0?\x00\x00\x00\x00\x00\x00\x10@\xb7m\xdb\xb6m\xdb\xfa?'
tb.F1.1512605042016806
.I28
.