c__builtin__
set
p1
((lp2
ccopy_reg
_reconstructor
p3
(ctaskSetup
State
p4
c__builtin__
tuple
p5
(I0
I3
I0
I0
I0
I1
I0
ttRp6
ag3
(g4
g5
(I1
I0
I0
I0
I0
I1
I0
ttRp7
ag3
(g4
g5
(I1
I1
I1
I0
I1
I1
I0
ttRp8
ag3
(g4
g5
(I0
I1
I0
I0
I1
I0
I0
ttRp9
ag3
(g4
g5
(I1
I1
I0
I1
I0
I0
I0
ttRp10
ag3
(g4
g5
(I0
I1
I1
I1
I0
I1
I0
ttRp11
ag3
(g4
g5
(I1
I0
I0
I0
I1
I1
I0
ttRp12
ag3
(g4
g5
(I1
I0
I0
I1
I0
I0
I0
ttRp13
ag3
(g4
g5
(I0
I2
I0
I0
I0
I1
I0
ttRp14
ag3
(g4
g5
(I1
I3
I0
I0
I0
I0
I0
ttRp15
ag3
(g4
g5
(I2
I1
I1
I1
I0
I1
I0
ttRp16
ag3
(g4
g5
(I0
I3
I0
I0
I0
I0
I0
ttRp17
ag3
(g4
g5
(I0
I0
I1
I0
I1
I1
I0
ttRp18
ag3
(g4
g5
(I0
I4
I0
I0
I0
I0
I0
ttRp19
ag3
(g4
g5
(I0
I0
I0
I1
I0
I0
I0
ttRp20
ag3
(g4
g5
(I2
I1
I0
I0
I1
I1
I0
ttRp21
ag3
(g4
g5
(I1
I1
I1
I1
I0
I1
I0
ttRp22
ag3
(g4
g5
(I0
I1
I0
I1
I0
I0
I0
ttRp23
ag3
(g4
g5
(I1
I1
I0
I0
I1
I0
I0
ttRp24
ag3
(g4
g5
(I0
I1
I1
I0
I1
I1
I0
ttRp25
ag3
(g4
g5
(I2
I0
I1
I0
I1
I1
I0
ttRp26
ag3
(g4
g5
(I2
I0
I0
I1
I0
I0
I0
ttRp27
ag3
(g4
g5
(I1
I2
I0
I0
I0
I0
I0
ttRp28
ag3
(g4
g5
(I2
I1
I0
I1
I0
I0
I0
ttRp29
ag3
(g4
g5
(I2
I1
I1
I0
I1
I1
I0
ttRp30
ag3
(g4
g5
(I2
I2
I0
I0
I0
I0
I0
ttRp31
ag3
(g4
g5
(I1
I2
I1
I0
I0
I1
I0
ttRp32
ag3
(g4
g5
(I0
I2
I1
I0
I1
I1
I0
ttRp33
ag3
(g4
g5
(I0
I0
I1
I1
I0
I1
I0
ttRp34
ag3
(g4
g5
(I1
I1
I0
I1
I0
I1
I0
ttRp35
ag3
(g4
g5
(I0
I0
I0
I0
I1
I0
I0
ttRp36
ag3
(g4
g5
(I1
I1
I0
I0
I1
I1
I0
ttRp37
ag3
(g4
g5
(I0
I3
I0
I0
I1
I0
I0
ttRp38
ag3
(g4
g5
(I0
I3
I1
I1
I0
I1
I0
ttRp39
ag3
(g4
g5
(I1
I1
I1
I0
I0
I1
I0
ttRp40
ag3
(g4
g5
(I1
I1
I0
I0
I0
I1
I0
ttRp41
ag3
(g4
g5
(I2
I0
I0
I0
I1
I0
I0
ttRp42
ag3
(g4
g5
(I2
I1
I0
I0
I1
I0
I0
ttRp43
ag3
(g4
g5
(I1
I1
I0
I0
I0
I0
I0
ttRp44
ag3
(g4
g5
(I2
I1
I0
I1
I0
I1
I0
ttRp45
ag3
(g4
g5
(I3
I1
I0
I0
I0
I0
I0
ttRp46
ag3
(g4
g5
(I0
I2
I0
I0
I0
I0
I0
ttRp47
ag3
(g4
g5
(I1
I2
I0
I0
I1
I0
I0
ttRp48
ag3
(g4
g5
(I0
I2
I0
I1
I0
I0
I0
ttRp49
ag3
(g4
g5
(I3
I0
I0
I0
I0
I1
I0
ttRp50
ag3
(g4
g5
(I0
I2
I0
I0
I1
I0
I0
ttRp51
ag3
(g4
g5
(I0
I3
I0
I1
I0
I0
I0
ttRp52
ag3
(g4
g5
(I0
I0
I0
I0
I0
I0
I1
ttRp53
ag3
(g4
g5
(I0
I3
I1
I0
I1
I1
I0
ttRp54
ag3
(g4
g5
(I0
I0
I0
I0
I0
I0
I0
ttRp55
ag3
(g4
g5
(I0
I0
I1
I0
I0
I1
I0
ttRp56
ag3
(g4
g5
(I2
I0
I1
I0
I0
I1
I0
ttRp57
ag3
(g4
g5
(I1
I0
I0
I0
I0
I0
I0
ttRp58
ag3
(g4
g5
(I0
I2
I0
I1
I1
I0
I0
ttRp59
ag3
(g4
g5
(I1
I2
I0
I0
I0
I1
I0
ttRp60
ag3
(g4
g5
(I2
I1
I0
I0
I0
I1
I0
ttRp61
ag3
(g4
g5
(I1
I0
I1
I0
I0
I1
I0
ttRp62
ag3
(g4
g5
(I0
I2
I1
I1
I0
I1
I0
ttRp63
ag3
(g4
g5
(I1
I2
I0
I1
I0
I0
I0
ttRp64
ag3
(g4
g5
(I3
I0
I0
I0
I0
I0
I0
ttRp65
ag3
(g4
g5
(I2
I0
I1
I1
I0
I1
I0
ttRp66
ag3
(g4
g5
(I1
I0
I0
I1
I0
I1
I0
ttRp67
ag3
(g4
g5
(I1
I0
I1
I0
I1
I1
I0
ttRp68
ag3
(g4
g5
(I3
I0
I1
I0
I0
I1
I0
ttRp69
ag3
(g4
g5
(I2
I0
I0
I0
I0
I1
I0
ttRp70
ag3
(g4
g5
(I0
I1
I0
I0
I0
I0
I0
ttRp71
ag3
(g4
g5
(I0
I1
I1
I0
I0
I1
I0
ttRp72
ag3
(g4
g5
(I0
I1
I0
I0
I0
I1
I0
ttRp73
ag3
(g4
g5
(I2
I1
I0
I0
I0
I0
I0
ttRp74
ag3
(g4
g5
(I1
I0
I0
I0
I1
I0
I0
ttRp75
ag3
(g4
g5
(I1
I0
I1
I1
I0
I1
I0
ttRp76
ag3
(g4
g5
(I2
I1
I1
I0
I0
I1
I0
ttRp77
ag3
(g4
g5
(I0
I2
I1
I0
I0
I1
I0
ttRp78
ag3
(g4
g5
(I0
I0
I0
I0
I0
I1
I0
ttRp79
ag3
(g4
g5
(I2
I0
I0
I0
I0
I0
I0
ttRp80
atRp81
.(dp1
ccopy_reg
_reconstructor
p2
(ctaskSetup
State
p3
c__builtin__
tuple
p4
(I0
I3
I0
I0
I0
I1
I0
ttRp5
(dp6
S'G'
I2
ssg2
(g3
g4
(I1
I0
I0
I0
I0
I1
I0
ttRp7
(dp8
S'G'
I9
ssg2
(g3
g4
(I1
I1
I1
I0
I1
I1
I0
ttRp9
(dp10
S'WG'
p11
I3
ssg2
(g3
g4
(I0
I1
I0
I0
I1
I0
I0
ttRp12
(dp13
S'K'
I13
ssg2
(g3
g4
(I1
I1
I0
I1
I0
I0
I0
ttRp14
(dp15
S'R'
I7
ssg2
(g3
g4
(I0
I1
I1
I1
I0
I1
I0
ttRp16
(dp17
S'WG'
p18
I1
sS'R'
I1
ssg2
(g3
g4
(I1
I0
I0
I0
I1
I1
I0
ttRp19
(dp20
S'G'
I1
ssg2
(g3
g4
(I1
I0
I0
I1
I0
I0
I0
ttRp21
(dp22
S'R'
I3
ssg2
(g3
g4
(I0
I2
I0
I0
I0
I1
I0
ttRp23
(dp24
S'G'
I5
ssg2
(g3
g4
(I1
I3
I0
I0
I0
I0
I0
ttRp25
(dp26
S'TR'
p27
I3
sS'TH'
p28
I3
ssg2
(g3
g4
(I2
I1
I1
I1
I0
I1
I0
ttRp29
(dp30
S'WG'
p31
I1
sS'R'
I1
ssg2
(g3
g4
(I0
I3
I0
I0
I0
I0
I0
ttRp32
(dp33
S'TH'
p34
I5
ssg2
(g3
g4
(I0
I0
I1
I0
I1
I1
I0
ttRp35
(dp36
S'WG'
p37
I2
ssg2
(g3
g4
(I0
I4
I0
I0
I0
I0
I0
ttRp38
(dp39
S'TH'
p40
I2
ssg2
(g3
g4
(I0
I0
I0
I1
I0
I0
I0
ttRp41
(dp42
S'R'
I14
ssg2
(g3
g4
(I2
I1
I0
I0
I1
I1
I0
ttRp43
(dp44
S'G'
I1
ssg2
(g3
g4
(I1
I1
I1
I1
I0
I1
I0
ttRp45
(dp46
S'WG'
p47
I1
sS'R'
I1
ssg2
(g3
g4
(I0
I1
I0
I1
I0
I0
I0
ttRp48
(dp49
S'R'
I7
ssg2
(g3
g4
(I1
I1
I0
I0
I1
I0
I0
ttRp50
(dp51
S'K'
I13
ssg2
(g3
g4
(I0
I1
I1
I0
I1
I1
I0
ttRp52
(dp53
S'WG'
p54
I1
ssg2
(g3
g4
(I2
I0
I1
I0
I1
I1
I0
ttRp55
(dp56
S'WG'
p57
I1
ssg2
(g3
g4
(I2
I0
I0
I1
I0
I0
I0
ttRp58
(dp59
S'R'
I1
ssg2
(g3
g4
(I1
I2
I0
I0
I0
I0
I0
ttRp60
(dp61
S'TR'
p62
I4
sS'TH'
p63
I10
ssg2
(g3
g4
(I2
I1
I0
I1
I0
I0
I0
ttRp64
(dp65
S'R'
I3
ssg2
(g3
g4
(I2
I1
I1
I0
I1
I1
I0
ttRp66
(dp67
S'WG'
p68
I2
ssg2
(g3
g4
(I2
I2
I0
I0
I0
I0
I0
ttRp69
(dp70
S'TR'
p71
I12
sS'TH'
p72
I6
ssg2
(g3
g4
(I1
I2
I1
I0
I0
I1
I0
ttRp73
(dp74
S'WG'
p75
I2
ssg2
(g3
g4
(I0
I2
I1
I0
I1
I1
I0
ttRp76
(dp77
S'WG'
p78
I1
ssg2
(g3
g4
(I0
I0
I1
I1
I0
I1
I0
ttRp79
(dp80
S'WG'
p81
I2
sS'R'
I2
ssg2
(g3
g4
(I1
I1
I0
I1
I0
I1
I0
ttRp82
(dp83
S'R'
I2
sS'G'
I1
ssg2
(g3
g4
(I0
I0
I0
I0
I1
I0
I0
ttRp84
(dp85
S'K'
I30
ssg2
(g3
g4
(I1
I1
I0
I0
I1
I1
I0
ttRp86
(dp87
S'G'
I2
ssg2
(g3
g4
(I0
I3
I0
I0
I1
I0
I0
ttRp88
(dp89
S'K'
I12
ssg2
(g3
g4
(I0
I3
I1
I1
I0
I1
I0
ttRp90
(dp91
S'WG'
p92
I1
sS'R'
I1
ssg2
(g3
g4
(I1
I1
I1
I0
I0
I1
I0
ttRp93
(dp94
S'WG'
p95
I7
ssg2
(g3
g4
(I1
I1
I0
I0
I0
I1
I0
ttRp96
(dp97
S'G'
I8
ssg2
(g3
g4
(I2
I0
I0
I0
I1
I0
I0
ttRp98
(dp99
S'K'
I3
ssg2
(g3
g4
(I2
I1
I0
I0
I1
I0
I0
ttRp100
(dp101
S'K'
I6
ssg2
(g3
g4
(I1
I1
I0
I0
I0
I0
I0
ttRp102
(dp103
S'K'
I1
sS'TR'
p104
I5
sS'TH'
p105
I10
ssg2
(g3
g4
(I2
I1
I0
I1
I0
I1
I0
ttRp106
(dp107
S'R'
I1
ssg2
(g3
g4
(I3
I1
I0
I0
I0
I0
I0
ttRp108
(dp109
S'TH'
p110
I2
ssg2
(g3
g4
(I0
I2
I0
I0
I0
I0
I0
ttRp111
(dp112
S'TH'
p113
I9
ssg2
(g3
g4
(I1
I2
I0
I0
I1
I0
I0
ttRp114
(dp115
S'K'
I14
ssg2
(g3
g4
(I0
I2
I0
I1
I0
I0
I0
ttRp116
(dp117
S'R'
I5
ssg2
(g3
g4
(I3
I0
I0
I0
I0
I1
I0
ttRp118
(dp119
S'G'
I1
ssg2
(g3
g4
(I0
I2
I0
I0
I1
I0
I0
ttRp120
(dp121
S'K'
I9
ssg2
(g3
g4
(I0
I3
I0
I1
I0
I0
I0
ttRp122
(dp123
S'R'
I8
ssg2
(g3
g4
(I0
I0
I0
I0
I0
I0
I1
ttRp124
(dp125
S'X'
I28
ssg2
(g3
g4
(I0
I3
I1
I0
I1
I1
I0
ttRp126
(dp127
S'WG'
p128
I1
ssg2
(g3
g4
(I0
I0
I0
I0
I0
I0
I0
ttRp129
(dp130
S'WS'
p131
I32
ssg2
(g3
g4
(I0
I0
I1
I0
I0
I1
I0
ttRp132
(dp133
S'WG'
p134
I10
ssg2
(g3
g4
(I2
I0
I1
I0
I0
I1
I0
ttRp135
(dp136
S'WG'
p137
I1
ssg2
(g3
g4
(I1
I0
I0
I0
I0
I0
I0
ttRp138
(dp139
S'TR'
p140
I14
ssg2
(g3
g4
(I0
I2
I0
I1
I1
I0
I0
ttRp141
(dp142
S'K'
I1
ssg2
(g3
g4
(I1
I2
I0
I0
I0
I1
I0
ttRp143
(dp144
S'G'
I2
ssg2
(g3
g4
(I2
I1
I0
I0
I0
I1
I0
ttRp145
(dp146
S'G'
I6
ssg2
(g3
g4
(I1
I0
I1
I0
I0
I1
I0
ttRp147
(dp148
S'WG'
p149
I6
ssg2
(g3
g4
(I0
I2
I1
I1
I0
I1
I0
ttRp150
(dp151
S'WG'
p152
I1
sS'R'
I1
ssg2
(g3
g4
(I1
I2
I0
I1
I0
I0
I0
ttRp153
(dp154
S'R'
I2
ssg2
(g3
g4
(I3
I0
I0
I0
I0
I0
I0
ttRp155
(dp156
S'TR'
p157
I1
ssg2
(g3
g4
(I2
I0
I1
I1
I0
I1
I0
ttRp158
(dp159
S'WG'
p160
I1
sS'R'
I1
ssg2
(g3
g4
(I1
I0
I0
I1
I0
I1
I0
ttRp161
(dp162
S'R'
I1
ssg2
(g3
g4
(I1
I0
I1
I0
I1
I1
I0
ttRp163
(dp164
S'WG'
p165
I3
ssg2
(g3
g4
(I3
I0
I1
I0
I0
I1
I0
ttRp166
(dp167
S'WG'
p168
I1
ssg2
(g3
g4
(I2
I0
I0
I0
I0
I1
I0
ttRp169
(dp170
S'G'
I3
ssg2
(g3
g4
(I0
I1
I0
I0
I0
I0
I0
ttRp171
(dp172
S'TH'
p173
I14
ssg2
(g3
g4
(I0
I1
I1
I0
I0
I1
I0
ttRp174
(dp175
S'WG'
p176
I7
ssg2
(g3
g4
(I0
I1
I0
I0
I0
I1
I0
ttRp177
(dp178
S'G'
I9
ssg2
(g3
g4
(I2
I1
I0
I0
I0
I0
I0
ttRp179
(dp180
S'TR'
p181
I4
sS'TH'
p182
I4
ssg2
(g3
g4
(I1
I0
I0
I0
I1
I0
I0
ttRp183
(dp184
S'K'
I10
ssg2
(g3
g4
(I1
I0
I1
I1
I0
I1
I0
ttRp185
(dp186
S'WG'
p187
I1
sS'R'
I2
ssg2
(g3
g4
(I2
I1
I1
I0
I0
I1
I0
ttRp188
(dp189
S'WG'
p190
I4
ssg2
(g3
g4
(I0
I2
I1
I0
I0
I1
I0
ttRp191
(dp192
S'WG'
p193
I3
ssg2
(g3
g4
(I0
I0
I0
I0
I0
I1
I0
ttRp194
(dp195
S'G'
I14
ssg2
(g3
g4
(I2
I0
I0
I0
I0
I0
I0
ttRp196
(dp197
S'TR'
p198
I4
ss.(lp1
F7.9285714285714288
aF9.7857142857142865
aF2.6428571428571428
aF2.6785714285714284
aF4.6071428571428568
aF5.0714285714285712
a.F1.1512605042016806
.I28
.